
digital_Theremin.elf:     file format elf32-littlenios2
digital_Theremin.elf
architecture: nios2:r1, flags 0x00000112:
EXEC_P, HAS_SYMS, D_PAGED
start address 0x04000244

Program Header:
    LOAD off    0x00001020 vaddr 0x04000020 paddr 0x04000020 align 2**12
         filesz 0x00017060 memsz 0x000171fc flags rwx
    LOAD off    0x00019000 vaddr 0x097f0000 paddr 0x097f0000 align 2**12
         filesz 0x00000000 memsz 0x00000000 flags r-x

Sections:
Idx Name          Size      VMA       LMA       File off  Algn
  0 .entry        00000000  097f0000  097f0000  00019000  2**5
                  CONTENTS, ALLOC, LOAD, READONLY, CODE
  1 .exceptions   00000224  04000020  04000020  00001020  2**2
                  CONTENTS, ALLOC, LOAD, READONLY, CODE
  2 .text         000131d8  04000244  04000244  00001244  2**2
                  CONTENTS, ALLOC, LOAD, READONLY, CODE
  3 .rodata       00002060  0401341c  0401341c  0001441c  2**2
                  CONTENTS, ALLOC, LOAD, READONLY, DATA
  4 .rwdata       00001c04  0401547c  0401547c  0001647c  2**2
                  CONTENTS, ALLOC, LOAD, DATA, SMALL_DATA
  5 .bss          0000019c  04017080  04017080  00018080  2**2
                  ALLOC, SMALL_DATA
  6 .dram_cntrl   00000000  0401721c  0401721c  00019000  2**0
                  CONTENTS
  7 .epcs_cntl_avl_mem 00000000  097f0020  097f0020  00019000  2**0
                  CONTENTS
  8 .comment      00000023  00000000  00000000  00019000  2**0
                  CONTENTS, READONLY
  9 .debug_aranges 00000fe8  00000000  00000000  00019028  2**3
                  CONTENTS, READONLY, DEBUGGING
 10 .debug_info   0002620e  00000000  00000000  0001a010  2**0
                  CONTENTS, READONLY, DEBUGGING
 11 .debug_abbrev 00009b51  00000000  00000000  0004021e  2**0
                  CONTENTS, READONLY, DEBUGGING
 12 .debug_line   0000c30b  00000000  00000000  00049d6f  2**0
                  CONTENTS, READONLY, DEBUGGING
 13 .debug_frame  00002b94  00000000  00000000  0005607c  2**2
                  CONTENTS, READONLY, DEBUGGING
 14 .debug_str    000045c1  00000000  00000000  00058c10  2**0
                  CONTENTS, READONLY, DEBUGGING
 15 .debug_loc    00017868  00000000  00000000  0005d1d1  2**0
                  CONTENTS, READONLY, DEBUGGING
 16 .debug_alt_sim_info 00000050  00000000  00000000  00074a3c  2**2
                  CONTENTS, READONLY, DEBUGGING
 17 .debug_ranges 000018b8  00000000  00000000  00074a90  2**3
                  CONTENTS, READONLY, DEBUGGING
 18 .thread_model 00000003  00000000  00000000  0007a106  2**0
                  CONTENTS, READONLY
 19 .cpu          00000003  00000000  00000000  0007a109  2**0
                  CONTENTS, READONLY
 20 .qsys         00000001  00000000  00000000  0007a10c  2**0
                  CONTENTS, READONLY
 21 .simulation_enabled 00000001  00000000  00000000  0007a10d  2**0
                  CONTENTS, READONLY
 22 .sysid_hash   00000004  00000000  00000000  0007a10e  2**0
                  CONTENTS, READONLY
 23 .sysid_base   00000004  00000000  00000000  0007a112  2**0
                  CONTENTS, READONLY
 24 .sysid_time   00000004  00000000  00000000  0007a116  2**0
                  CONTENTS, READONLY
 25 .stderr_dev   00000004  00000000  00000000  0007a11a  2**0
                  CONTENTS, READONLY
 26 .stdin_dev    00000004  00000000  00000000  0007a11e  2**0
                  CONTENTS, READONLY
 27 .stdout_dev   00000004  00000000  00000000  0007a122  2**0
                  CONTENTS, READONLY
 28 .sopc_system_name 00000010  00000000  00000000  0007a126  2**0
                  CONTENTS, READONLY
 29 .quartus_project_dir 0000004b  00000000  00000000  0007a136  2**0
                  CONTENTS, READONLY
 30 .jdi          00006558  00000000  00000000  0007a181  2**0
                  CONTENTS, READONLY
 31 .sopcinfo     000af030  00000000  00000000  000806d9  2**0
                  CONTENTS, READONLY
SYMBOL TABLE:
097f0000 l    d  .entry	00000000 .entry
04000020 l    d  .exceptions	00000000 .exceptions
04000244 l    d  .text	00000000 .text
0401341c l    d  .rodata	00000000 .rodata
0401547c l    d  .rwdata	00000000 .rwdata
04017080 l    d  .bss	00000000 .bss
0401721c l    d  .dram_cntrl	00000000 .dram_cntrl
097f0020 l    d  .epcs_cntl_avl_mem	00000000 .epcs_cntl_avl_mem
00000000 l    d  .comment	00000000 .comment
00000000 l    d  .debug_aranges	00000000 .debug_aranges
00000000 l    d  .debug_info	00000000 .debug_info
00000000 l    d  .debug_abbrev	00000000 .debug_abbrev
00000000 l    d  .debug_line	00000000 .debug_line
00000000 l    d  .debug_frame	00000000 .debug_frame
00000000 l    d  .debug_str	00000000 .debug_str
00000000 l    d  .debug_loc	00000000 .debug_loc
00000000 l    d  .debug_alt_sim_info	00000000 .debug_alt_sim_info
00000000 l    d  .debug_ranges	00000000 .debug_ranges
00000000 l    df *ABS*	00000000 ../digital_Theremin_bsp//obj/HAL/src/crt0.o
04000288 l       .text	00000000 alt_after_alt_main
00000000 l    df *ABS*	00000000 alt_irq_handler.c
00000000 l    df *ABS*	00000000 alt_instruction_exception_entry.c
00000000 l    df *ABS*	00000000 audio.c
00000000 l    df *ABS*	00000000 bahnschriftCondensed_22.c
00000000 l    df *ABS*	00000000 gui.c
00000000 l    df *ABS*	00000000 simple_text.c
00000000 l    df *ABS*	00000000 hello_world.c
00000000 l    df *ABS*	00000000 touch_isr.c
00000000 l    df *ABS*	00000000 memcpy.c
00000000 l    df *ABS*	00000000 printf.c
00000000 l    df *ABS*	00000000 puts.c
00000000 l    df *ABS*	00000000 strlen.c
00000000 l    df *ABS*	00000000 vfprintf.c
04014e52 l     O .rodata	00000010 zeroes.4404
04004548 l     F .text	000000bc __sbprintf
04014e62 l     O .rodata	00000010 blanks.4403
00000000 l    df *ABS*	00000000 wsetup.c
00000000 l    df *ABS*	00000000 dtoa.c
04004758 l     F .text	00000200 quorem
00000000 l    df *ABS*	00000000 fflush.c
00000000 l    df *ABS*	00000000 findfp.c
04006288 l     F .text	00000008 __fp_unlock
0400629c l     F .text	0000019c __sinit.part.1
04006438 l     F .text	00000008 __fp_lock
00000000 l    df *ABS*	00000000 mallocr.c
00000000 l    df *ABS*	00000000 fvwrite.c
00000000 l    df *ABS*	00000000 fwalk.c
00000000 l    df *ABS*	00000000 impure.c
0401547c l     O .rwdata	00000424 impure_data
00000000 l    df *ABS*	00000000 locale.c
040158c0 l     O .rwdata	00000020 lc_ctype_charset
040158a0 l     O .rwdata	00000020 lc_message_charset
040158e0 l     O .rwdata	00000038 lconv
00000000 l    df *ABS*	00000000 makebuf.c
00000000 l    df *ABS*	00000000 mallocr.c
00000000 l    df *ABS*	00000000 memchr.c
00000000 l    df *ABS*	00000000 memmove.c
00000000 l    df *ABS*	00000000 memset.c
00000000 l    df *ABS*	00000000 mprec.c
04014e94 l     O .rodata	0000000c p05.2768
00000000 l    df *ABS*	00000000 mallocr.c
00000000 l    df *ABS*	00000000 s_fpclassify.c
00000000 l    df *ABS*	00000000 sbrkr.c
00000000 l    df *ABS*	00000000 stdio.c
00000000 l    df *ABS*	00000000 strcmp.c
00000000 l    df *ABS*	00000000 vfprintf.c
040096ec l     F .text	000000fc __sprint_r.part.0
04014fc8 l     O .rodata	00000010 blanks.4348
04014fb8 l     O .rodata	00000010 zeroes.4349
0400ac78 l     F .text	000000bc __sbprintf
00000000 l    df *ABS*	00000000 writer.c
00000000 l    df *ABS*	00000000 closer.c
00000000 l    df *ABS*	00000000 mallocr.c
00000000 l    df *ABS*	00000000 fclose.c
00000000 l    df *ABS*	00000000 fputwc.c
00000000 l    df *ABS*	00000000 fstatr.c
00000000 l    df *ABS*	00000000 int_errno.c
00000000 l    df *ABS*	00000000 isattyr.c
00000000 l    df *ABS*	00000000 lseekr.c
00000000 l    df *ABS*	00000000 readr.c
00000000 l    df *ABS*	00000000 wbuf.c
00000000 l    df *ABS*	00000000 wcrtomb.c
00000000 l    df *ABS*	00000000 wctomb_r.c
00000000 l    df *ABS*	00000000 libgcc2.c
00000000 l    df *ABS*	00000000 libgcc2.c
00000000 l    df *ABS*	00000000 lib2-divmod.c
00000000 l    df *ABS*	00000000 adddf3.c
00000000 l    df *ABS*	00000000 divdf3.c
00000000 l    df *ABS*	00000000 eqdf2.c
00000000 l    df *ABS*	00000000 gedf2.c
00000000 l    df *ABS*	00000000 ledf2.c
00000000 l    df *ABS*	00000000 muldf3.c
00000000 l    df *ABS*	00000000 subdf3.c
00000000 l    df *ABS*	00000000 fixdfsi.c
00000000 l    df *ABS*	00000000 floatsidf.c
00000000 l    df *ABS*	00000000 floatunsidf.c
00000000 l    df *ABS*	00000000 libgcc2.c
00000000 l    df *ABS*	00000000 libgcc2.c
00000000 l    df *ABS*	00000000 alt_alarm_start.c
00000000 l    df *ABS*	00000000 alt_close.c
0400ea60 l     F .text	0000003c alt_get_errno
00000000 l    df *ABS*	00000000 alt_dev.c
0400eb6c l     F .text	0000002c alt_dev_null_write
00000000 l    df *ABS*	00000000 alt_errno.c
00000000 l    df *ABS*	00000000 alt_fstat.c
0400eb98 l     F .text	0000003c alt_get_errno
00000000 l    df *ABS*	00000000 alt_iic.c
00000000 l    df *ABS*	00000000 alt_iic_isr_register.c
00000000 l    df *ABS*	00000000 alt_irq_vars.c
00000000 l    df *ABS*	00000000 alt_isatty.c
0400ef24 l     F .text	0000003c alt_get_errno
00000000 l    df *ABS*	00000000 alt_lseek.c
0400f004 l     F .text	0000003c alt_get_errno
00000000 l    df *ABS*	00000000 alt_main.c
00000000 l    df *ABS*	00000000 alt_malloc_lock.c
00000000 l    df *ABS*	00000000 alt_read.c
0400f1d8 l     F .text	0000003c alt_get_errno
00000000 l    df *ABS*	00000000 alt_release_fd.c
00000000 l    df *ABS*	00000000 alt_sbrk.c
0401706c l     O .rwdata	00000004 heap_end
00000000 l    df *ABS*	00000000 alt_tick.c
00000000 l    df *ABS*	00000000 alt_usleep.c
00000000 l    df *ABS*	00000000 alt_write.c
0400f5f8 l     F .text	0000003c alt_get_errno
00000000 l    df *ABS*	00000000 alt_sys_init.c
0400f72c l     F .text	00000034 alt_dev_reg
04015ec8 l     O .rwdata	00001060 jtag
04016f28 l     O .rwdata	000000dc epcs_cntl
04017004 l     O .rwdata	00000030 audio_and_video_config_0
00000000 l    df *ABS*	00000000 LT24_Controller.c
00000000 l    df *ABS*	00000000 Pitch_generation.c
00000000 l    df *ABS*	00000000 Volume_generation.c
00000000 l    df *ABS*	00000000 altera_avalon_jtag_uart_fd.c
00000000 l    df *ABS*	00000000 altera_avalon_jtag_uart_init.c
04010958 l     F .text	0000020c altera_avalon_jtag_uart_irq
04010b64 l     F .text	000000a0 altera_avalon_jtag_uart_timeout
00000000 l    df *ABS*	00000000 altera_avalon_jtag_uart_ioctl.c
00000000 l    df *ABS*	00000000 altera_avalon_jtag_uart_read.c
00000000 l    df *ABS*	00000000 altera_avalon_jtag_uart_write.c
00000000 l    df *ABS*	00000000 altera_avalon_spi.c
00000000 l    df *ABS*	00000000 altera_avalon_timer_sc.c
04011398 l     F .text	00000078 alt_avalon_timer_sc_irq
00000000 l    df *ABS*	00000000 altera_epcq_controller.c
0401148c l     F .text	00000034 alt_flash_device_register
04011ef0 l     F .text	00000088 alt_epcq_poll_for_write_in_progress
04011e54 l     F .text	0000009c alt_epcq_validate_read_write_arguments
00000000 l    df *ABS*	00000000 altera_up_avalon_audio_and_video_config.c
00000000 l    df *ABS*	00000000 alt_busy_sleep.c
00000000 l    df *ABS*	00000000 alt_dev_llist_insert.c
0401279c l     F .text	0000003c alt_get_errno
00000000 l    df *ABS*	00000000 alt_do_ctors.c
00000000 l    df *ABS*	00000000 alt_do_dtors.c
00000000 l    df *ABS*	00000000 alt_find_dev.c
00000000 l    df *ABS*	00000000 alt_flash_dev.c
00000000 l    df *ABS*	00000000 alt_io_redirect.c
04012b24 l     F .text	000000c4 alt_open_fd
00000000 l    df *ABS*	00000000 alt_open.c
04012c64 l     F .text	0000003c alt_get_errno
04012ca0 l     F .text	000000c4 alt_file_locked
00000000 l    df *ABS*	00000000 altera_nios2_gen2_irq.c
00000000 l    df *ABS*	00000000 alt_find_file.c
00000000 l    df *ABS*	00000000 alt_get_fd.c
00000000 l    df *ABS*	00000000 atexit.c
00000000 l    df *ABS*	00000000 exit.c
00000000 l    df *ABS*	00000000 memcmp.c
00000000 l    df *ABS*	00000000 __atexit.c
00000000 l    df *ABS*	00000000 __call_atexit.c
00000000 l    df *ABS*	00000000 alt_exit.c
040170c0 g     O .bss	00000004 alt_instruction_exception_handler
040120bc g     F .text	00000038 alt_up_av_config_reset
04008d30 g     F .text	00000074 _mprec_log10
04012514 g     F .text	00000058 alt_up_av_config_read_D5M_cfg_register
04008e1c g     F .text	0000008c __any_on
0400b214 g     F .text	00000054 _isatty_r
0400fad8 g     F .text	00000070 LCD_DrawPoint
04014ea0 g     O .rodata	00000028 __mprec_tinytens
0401212c g     F .text	00000034 alt_up_av_config_disable_interrupt
0400f114 g     F .text	0000007c alt_main
040021c8 g     F .text	000000c0 _puts_r
0401711c g     O .bss	00000100 alt_irq
0400b268 g     F .text	00000060 _lseek_r
0400d460 g     F .text	00000088 .hidden __eqdf2
0401041c g     F .text	00000028 read_delay_gli
04014956 g     O .rodata	0000017c arial_22ptDescriptors
0401721c g       *ABS*	00000000 __alt_heap_start
040121f0 g     F .text	000000a4 alt_up_av_config_write_audio_cfg_register
0400218c g     F .text	0000003c printf
0400b480 g     F .text	0000009c _wcrtomb_r
040095ac g     F .text	0000005c __sseek
040065d8 g     F .text	00000010 __sinit
0400b328 g     F .text	00000140 __swbuf_r
040070a0 g     F .text	0000007c _setlocale_r
04006440 g     F .text	00000068 __sfmoreglue
0400f1b4 g     F .text	00000024 __malloc_unlock
04000a68 g     F .text	000000d8 draw_glissando_on_off
040103f4 g     F .text	00000028 read_freq_pitch
04017037 g     O .rwdata	00000001 pen_IRS_enable
04007c28 g     F .text	0000015c memmove
040065c0 g     F .text	00000018 _cleanup
04007eac g     F .text	000000a8 _Balloc
04017088 g     O .bss	00000004 ton_delay
0400d4e8 g     F .text	000000dc .hidden __gtdf2
04012eb8 g     F .text	00000024 altera_nios2_gen2_irq_init
097f0000 g     F .entry	00000000 __reset
04017036 g     O .rwdata	00000001 CommandGetY
0400fa4c g     F .text	0000008c LCD_Clear
0400b1b8 g     F .text	0000005c _fstat_r
040170a4 g     O .bss	00000004 errno
04009528 g     F .text	00000008 __seofread
040170b0 g     O .bss	00000004 alt_argv
0401f034 g       *ABS*	00000000 _gp
0400f5c8 g     F .text	00000030 usleep
04010444 g     F .text	000001e4 get_pixel_pitch_accuracy
04001f88 g     F .text	00000068 touch_init
09000000 g       *ABS*	00000000 __alt_mem_epcs_cntl_avl_mem
04015d48 g     O .rwdata	00000180 alt_fd_list
0401293c g     F .text	00000090 alt_find_dev
04002014 g     F .text	00000148 memcpy
04006290 g     F .text	0000000c _cleanup_r
0400e74c g     F .text	000000dc .hidden __floatsidf
04012be8 g     F .text	0000007c alt_io_redirect
0400d5c4 g     F .text	000000f4 .hidden __ltdf2
0401341c g       *ABS*	00000000 __DTOR_END__
04002288 g     F .text	00000014 puts
04012a88 g     F .text	0000009c alt_exception_cause_generated_bad_addr
0400940c g     F .text	00000074 __fpclassifyd
040012d8 g     F .text	000000c8 get_string_width
04008c8c g     F .text	000000a4 __ratio
0400ac5c g     F .text	0000001c __vfiprintf_internal
04000434 g     F .text	0000010c draw_main_screen
04010d5c g     F .text	0000021c altera_avalon_jtag_uart_read
0400215c g     F .text	00000030 _printf_r
0400c210 g     F .text	00000064 .hidden __udivsi3
0400ef60 g     F .text	000000a4 isatty
04014ef0 g     O .rodata	000000c8 __mprec_tens
0400711c g     F .text	0000000c __locale_charset
0400028c g     F .text	00000114 codec_wm8731_init
040170a0 g     O .bss	00000004 __malloc_top_pad
0401203c g     F .text	00000080 alt_up_av_config_read_data
04017040 g     O .rwdata	00000004 __mb_cur_max
0400714c g     F .text	0000000c _localeconv_r
040082b8 g     F .text	0000003c __i2b
04006a5c g     F .text	000004bc __sfvwrite_r
04009480 g     F .text	00000054 _sbrk_r
0400b2c8 g     F .text	00000060 _read_r
04017060 g     O .rwdata	00000004 alt_max_fd
0400aeac g     F .text	000000f0 _fclose_r
04006258 g     F .text	00000030 fflush
0401709c g     O .bss	00000004 __malloc_max_sbrked_mem
0400c2cc g     F .text	000008ac .hidden __adddf3
04008a34 g     F .text	0000010c __b2d
0400bbe0 g     F .text	00000538 .hidden __umoddi3
0400f040 g     F .text	000000d4 lseek
04017038 g     O .rwdata	00000004 _global_impure_ptr
04008ea8 g     F .text	00000564 _realloc_r
0401721c g       *ABS*	00000000 __bss_end
0400ee34 g     F .text	000000f0 alt_iic_isr_register
0400f4c0 g     F .text	00000108 alt_tick
0400b668 g     F .text	00000578 .hidden __udivdi3
0400b114 g     F .text	00000024 _fputwc_r
04014ec8 g     O .rodata	00000028 __mprec_bigtens
0400809c g     F .text	00000104 __s2b
0400e828 g     F .text	000000a8 .hidden __floatunsidf
04008774 g     F .text	00000060 __mcmp
040065f8 g     F .text	00000018 __fp_lock_all
0400ede8 g     F .text	0000004c alt_ic_irq_enabled
0401343a g     O .rodata	0000151c arial_22ptBitmaps
0400f424 g     F .text	0000009c alt_alarm_stop
040170a8 g     O .bss	00000004 alt_irq_active
040000fc g     F .exceptions	000000d4 alt_irq_handler
04010360 g     F .text	00000038 set_cntrl_reg
04015d20 g     O .rwdata	00000028 alt_dev_null
04010328 g     F .text	00000038 set_glissando_delay
04000540 g     F .text	00000160 draw_calibrating_screen
0401165c g     F .text	00000110 alt_epcq_controller_erase_block
04000d40 g     F .text	000000d8 draw_penta_on_off
040081a0 g     F .text	00000068 __hi0bits
040103c8 g     F .text	0000002c done_calibration_pitch
0400e6cc g     F .text	00000080 .hidden __fixdfsi
04010628 g     F .text	00000030 set_calibration_vol_gen
04017058 g     O .rwdata	00000008 alt_dev_list
0400f634 g     F .text	000000f8 write
0400ebd4 g     F .text	000000b0 fstat
0401070c g     F .text	00000028 read_vol_gain_gen
0400d5c4 g     F .text	000000f4 .hidden __ledf2
040084ec g     F .text	00000140 __pow5mult
04009800 g     F .text	0000145c ___vfiprintf_internal_r
04017094 g     O .bss	00000004 __nlocale_changed
0400c274 g     F .text	00000058 .hidden __umodsi3
0400f92c g     F .text	00000120 LCD_SetRect
04001c78 g     F .text	00000310 touch_isr
04001610 g     F .text	00000054 alarm_callback_vol
0401721c g       *ABS*	00000000 end
04010898 g     F .text	000000c0 altera_avalon_jtag_uart_init
040001d0 g     F .exceptions	00000074 alt_instruction_exception_entry
040013a0 g     F .text	000001f0 vid_print_char
040003a0 g     F .text	00000094 set_vol_test
0401341c g       *ABS*	00000000 __CTOR_LIST__
08000000 g       *ABS*	00000000 __alt_stack_pointer
04011410 g     F .text	0000007c alt_avalon_timer_sc_init
0400e8d0 g     F .text	00000064 .hidden __clzsi2
04010f78 g     F .text	00000224 altera_avalon_jtag_uart_write
040065e8 g     F .text	00000004 __sfp_lock_acquire
04007b44 g     F .text	000000e4 memchr
04011978 g     F .text	000001e0 alt_epcq_controller_write
04002334 g     F .text	000021f8 ___vfprintf_internal_r
0400674c g     F .text	00000310 _free_r
04007128 g     F .text	00000010 __locale_mb_cur_max
0400f874 g     F .text	000000b8 LCD_SetCursor
04013268 g     F .text	00000180 __call_exitprocs
04017090 g     O .bss	00000004 __mlocale_changed
040008b0 g     F .text	000000ac draw_update_volume_bar
0400095c g     F .text	0000010c draw_help_screen
04017044 g     O .rwdata	00000004 __malloc_sbrk_base
04000244 g     F .text	00000048 _start
04011b58 g     F .text	000000ac alt_epcq_controller_read
040170b8 g     O .bss	00000004 _alt_tick_rate
04000c98 g     F .text	000000a8 draw_update_glissando_delay
0400862c g     F .text	00000148 __lshift
04011fd8 g     F .text	00000064 alt_up_av_config_write_data
0401119c g     F .text	000001fc alt_avalon_spi_command
040170bc g     O .bss	00000004 _alt_nticks
0400f214 g     F .text	000000fc read
0400f798 g     F .text	0000008c alt_sys_init
04013150 g     F .text	00000118 __register_exitproc
0401261c g     F .text	00000058 alt_up_av_config_write_LTM_cfg_register
040082f4 g     F .text	000001f8 __multiply
04010c04 g     F .text	00000068 altera_avalon_jtag_uart_close
04017035 g     O .rwdata	00000001 CommandGetX
040170c4 g     O .bss	00000028 __malloc_current_mallinfo
04008b40 g     F .text	0000014c __d2b
04017084 g     O .bss	00000002 pixel_accuracy_old
040170ec g     O .bss	00000018 my_alarm
04010734 g     F .text	00000060 altera_avalon_jtag_uart_read_fd
04012fe4 g     F .text	000000a4 alt_get_fd
04012674 g     F .text	00000128 alt_busy_sleep
04010684 g     F .text	00000038 set_vol_gen
0400ad94 g     F .text	00000054 _close_r
04000b40 g     F .text	00000158 draw_glissando_set
040130d4 g     F .text	0000007c memcmp
040107f4 g     F .text	00000050 altera_avalon_jtag_uart_close_fd
0401721c g       *ABS*	00000000 __alt_stack_base
04010844 g     F .text	00000054 altera_avalon_jtag_uart_ioctl_fd
04004604 g     F .text	00000154 __swsetup_r
04017080 g     O .bss	00000004 i2c_dev
0400cb78 g     F .text	000008e8 .hidden __divdf3
040064a8 g     F .text	00000118 __sfp
04008da4 g     F .text	00000078 __copybits
04015918 g     O .rwdata	00000408 __malloc_av_
040065f4 g     F .text	00000004 __sinit_lock_release
0400d6b8 g     F .text	00000718 .hidden __muldf3
040094d4 g     F .text	00000054 __sread
04012edc g     F .text	00000108 alt_find_file
040127d8 g     F .text	000000a4 alt_dev_llist_insert
0400f190 g     F .text	00000024 __malloc_lock
0400f374 g     F .text	000000b0 sbrk
040061fc g     F .text	0000005c _fflush_r
0400ade8 g     F .text	000000c4 _calloc_r
04017078 g     O .rwdata	00000008 alt_flash_dev_list
04017080 g       *ABS*	00000000 __bss_start
0400fcb8 g     F .text	00000670 LCD_Init
04007d84 g     F .text	00000128 memset
04001664 g     F .text	00000614 main
040170b4 g     O .bss	00000004 alt_envp
04017098 g     O .bss	00000004 __malloc_max_total_mem
04010794 g     F .text	00000060 altera_avalon_jtag_uart_write_fd
0400b468 g     F .text	00000018 __swbuf
04009608 g     F .text	00000008 __sclose
08000000 g       *ABS*	00000000 __alt_heap_limit
0400af9c g     F .text	00000014 fclose
04000774 g     F .text	0000013c draw_volume_screen
04004958 g     F .text	00001688 _dtoa_r
04007338 g     F .text	0000080c _malloc_r
0400b5dc g     F .text	00000030 __ascii_wctomb
04017064 g     O .rwdata	00000004 alt_errno
04006f18 g     F .text	000000c4 _fwalk
0400f824 g     F .text	00000050 Delay_Ms
0400c118 g     F .text	00000084 .hidden __divsi3
04006628 g     F .text	00000124 _malloc_trim_r
0401341c g       *ABS*	00000000 __CTOR_END__
04009610 g     F .text	000000dc strcmp
04001590 g     F .text	00000080 alarm_callback
04017104 g     O .bss	00000018 vol_alarm
0401341c g       *ABS*	00000000 __DTOR_LIST__
0400d460 g     F .text	00000088 .hidden __nedf2
04011f78 g     F .text	00000060 alt_up_av_config_open_dev
040106e4 g     F .text	00000028 read_cntrl_vol_gen
0400f760 g     F .text	00000038 alt_irq_init
0400f310 g     F .text	00000064 alt_release_fd
04014fd8 g     O .rodata	00000100 .hidden __clz_tab
04000e18 g     F .text	000000c0 draw_display_ton
0401708c g     O .bss	00000004 _PathLocale
04013088 g     F .text	00000014 atexit
0400ad34 g     F .text	00000060 _write_r
040121b8 g     F .text	00000038 alt_up_av_config_read_ready
04007158 g     F .text	00000018 setlocale
0401703c g     O .rwdata	00000004 _impure_ptr
040170ac g     O .bss	00000004 alt_argc
04005fe0 g     F .text	0000021c __sflush_r
040128dc g     F .text	00000060 _do_dtors
04007144 g     F .text	00000008 __locale_cjk_lang
040115d0 g     F .text	0000008c alt_epcq_controller_get_info
04000020 g       .exceptions	00000000 alt_irq_entry
040089d0 g     F .text	00000064 __ulp
04006610 g     F .text	00000018 __fp_unlock_all
04017050 g     O .rwdata	00000008 alt_fs_list
04001194 g     F .text	00000144 vid_print_string
040106bc g     F .text	00000028 read_freq_vol_gen
04007170 g     F .text	0000000c localeconv
040120f4 g     F .text	00000038 alt_up_av_config_enable_interrupt
0400ec84 g     F .text	00000050 alt_ic_isr_register
040006a0 g     F .text	000000d4 draw_calibrating_screen_done
04012160 g     F .text	00000058 alt_up_av_config_read_acknowledge
040124bc g     F .text	00000058 alt_up_av_config_write_DC2_cfg_register
04017080 g       *ABS*	00000000 _edata
04011c04 g     F .text	00000250 altera_epcq_controller_init
0401721c g       *ABS*	00000000 _end
040129cc g     F .text	00000068 alt_flash_open_dev
0400afb0 g     F .text	00000164 __fputwc
04010c6c g     F .text	000000f0 altera_avalon_jtag_uart_ioctl
04017034 g     O .rwdata	00000001 cntrl_reg
04001ff0 g     F .text	00000024 get_xy
0400ed5c g     F .text	0000008c alt_ic_irq_disable
04009530 g     F .text	0000007c __swrite
04017048 g     O .rwdata	00000004 __malloc_trim_threshold
04007138 g     F .text	0000000c __locale_msgcharset
0401309c g     F .text	00000038 exit
0400fb48 g     F .text	000000d0 LCD_DrawRect
04006fdc g     F .text	000000c4 _fwalk_reent
040087d4 g     F .text	000001fc __mdiff
04012a34 g     F .text	00000054 alt_flash_close_dev
040125c4 g     F .text	00000058 alt_up_av_config_read_LTM_cfg_register
0400c19c g     F .text	00000074 .hidden __modsi3
040114c0 g     F .text	00000110 alt_epcq_controller_lock
08000000 g       *ABS*	00000000 __alt_data_end
04000020 g     F .exceptions	00000000 alt_exception
040065ec g     F .text	00000004 __sfp_lock_release
0400fc18 g     F .text	000000a0 vid_set_pixel
040133e8 g     F .text	00000034 _exit
04010658 g     F .text	0000002c done_calibration_vol_gen
0400e934 g     F .text	0000012c alt_alarm_start
0401176c g     F .text	0000020c alt_epcq_controller_write_block
0400717c g     F .text	000001bc __smakebuf_r
0400229c g     F .text	00000098 strlen
04012d64 g     F .text	00000154 open
0400d4e8 g     F .text	000000dc .hidden __gedf2
04012294 g     F .text	000000e8 alt_up_av_config_read_video_cfg_register
0401704c g     O .rwdata	00000004 __wctomb
04010398 g     F .text	00000030 set_calibration_pitch
040097e8 g     F .text	00000018 __sprint_r
04000000 g       *ABS*	00000000 __alt_mem_dram_cntrl
04017068 g     O .rwdata	00000004 alt_priority_mask
0400ecd4 g     F .text	00000088 alt_ic_irq_enable
0400452c g     F .text	0000001c __vfprintf_internal
0401256c g     F .text	00000058 alt_up_av_config_write_D5M_cfg_register
0400b60c g     F .text	0000005c _wctomb_r
0400ddd0 g     F .text	000008fc .hidden __subdf3
04008208 g     F .text	000000b0 __lo0bits
04017070 g     O .rwdata	00000008 alt_alarm_list
0401287c g     F .text	00000060 _do_ctors
04000ed8 g     F .text	000002bc draw_display_ton_update
0400b51c g     F .text	000000c0 wcrtomb
0400ea9c g     F .text	000000d0 close
0401237c g     F .text	000000e8 alt_up_av_config_write_video_cfg_register
0400b138 g     F .text	00000080 fputwc
040065f0 g     F .text	00000004 __sinit_lock_acquire
04007f7c g     F .text	00000120 __multadd
04007f54 g     F .text	00000028 _Bfree
04012464 g     F .text	00000058 alt_up_av_config_read_DC2_cfg_register



Disassembly of section .exceptions:

04000020 <alt_exception>:

#else /* ALT_EXCEPTION_STACK disabled */
        /* 
         * Reserve space on normal stack for registers about to be pushed.
         */
        addi  sp, sp, -76
 4000020:	deffed04 	addi	sp,sp,-76
         * documentation for details).
         *
         * Leave a gap in the stack frame at 4(sp) for the muldiv handler to
         * store zero into.
         */
        stw   ra,  0(sp)
 4000024:	dfc00015 	stw	ra,0(sp)
        stw   r1,   8(sp)
 4000028:	d8400215 	stw	at,8(sp)
        stw   r2,  12(sp)
 400002c:	d8800315 	stw	r2,12(sp)
        stw   r3,  16(sp)
 4000030:	d8c00415 	stw	r3,16(sp)
        stw   r4,  20(sp)
 4000034:	d9000515 	stw	r4,20(sp)
        stw   r5,  24(sp)
 4000038:	d9400615 	stw	r5,24(sp)
        stw   r6,  28(sp)
 400003c:	d9800715 	stw	r6,28(sp)
        stw   r7,  32(sp)
 4000040:	d9c00815 	stw	r7,32(sp)
        rdctl r5, estatus   /* Read early to avoid usage stall */
 4000044:	000b307a 	rdctl	r5,estatus
        stw   r8,  36(sp)
 4000048:	da000915 	stw	r8,36(sp)
        stw   r9,  40(sp)
 400004c:	da400a15 	stw	r9,40(sp)
        stw   r10, 44(sp)
 4000050:	da800b15 	stw	r10,44(sp)
        stw   r11, 48(sp)
 4000054:	dac00c15 	stw	r11,48(sp)
        stw   r12, 52(sp)
 4000058:	db000d15 	stw	r12,52(sp)
        stw   r13, 56(sp)
 400005c:	db400e15 	stw	r13,56(sp)
        stw   r14, 60(sp)
 4000060:	db800f15 	stw	r14,60(sp)
        stw   r15, 64(sp)
 4000064:	dbc01015 	stw	r15,64(sp)
        /*
         * ea-4 contains the address of the instruction being executed
         * when the exception occured. For interrupt exceptions, we will
         * will be re-issue the isntruction. Store it in 72(sp)
         */
        stw   r5,  68(sp)  /* estatus */
 4000068:	d9401115 	stw	r5,68(sp)
        addi  r15, ea, -4  /* instruction that caused exception */
 400006c:	ebffff04 	addi	r15,ea,-4
        stw   r15,  72(sp)
 4000070:	dbc01215 	stw	r15,72(sp)
#else
        /*
         * Test to see if the exception was a software exception or caused 
         * by an external interrupt, and vector accordingly.
         */
        rdctl r4, ipending
 4000074:	0009313a 	rdctl	r4,ipending
        andi  r2, r5, 1
 4000078:	2880004c 	andi	r2,r5,1
        beq   r2, zero, .Lnot_irq
 400007c:	10000326 	beq	r2,zero,400008c <alt_exception+0x6c>
        beq   r4, zero, .Lnot_irq
 4000080:	20000226 	beq	r4,zero,400008c <alt_exception+0x6c>
        /*
         * Now that all necessary registers have been preserved, call 
         * alt_irq_handler() to process the interrupts.
         */

        call alt_irq_handler
 4000084:	40000fc0 	call	40000fc <alt_irq_handler>

        .section .exceptions.irqreturn, "xa"

        br    .Lexception_exit
 4000088:	00000706 	br	40000a8 <alt_exception+0x88>
         * upon completion, so we write ea (address of instruction *after*
         * the one where the exception occured) into 72(sp). The actual
         * instruction that caused the exception is written in r2, which these
         * handlers will utilize.
         */
        stw ea, 72(sp) /* EA is PC+4 so will skip over instruction causing exception */
 400008c:	df401215 	stw	ea,72(sp)
.Lunknown_16bit:
        addi.n r4, r4, 2 /* Need PC+2 to skip over instruction causing exception */
        stw r4, 72(sp)

#else /* CDX is not Enabled and all instructions are 32bits */
        ldw r2, -4(ea) /* Instruction value that caused exception */
 4000090:	e8bfff17 	ldw	r2,-4(ea)
         * debugger is present) or go into an infinite loop since the
         * handling behavior is undefined; in that case we will not return here.
         */

        /* Load exception-causing address as first argument (r4) */
        addi   r4, ea, -4
 4000094:	e93fff04 	addi	r4,ea,-4

        /* Call the instruction-exception entry */
        call   alt_instruction_exception_entry
 4000098:	40001d00 	call	40001d0 <alt_instruction_exception_entry>
         * instruction
         *
         * Return code was 0: Skip. The instruction after the exception is
         * already stored in 72(sp).
         */
        bne   r2, r0, .Lexception_exit
 400009c:	1000021e 	bne	r2,zero,40000a8 <alt_exception+0x88>

        /*
         * Otherwise, modify 72(sp) to re-issue the instruction that caused the
         * exception.
         */
        addi  r15, ea, -4  /* instruction that caused exception */
 40000a0:	ebffff04 	addi	r15,ea,-4
        stw   r15,  72(sp)
 40000a4:	dbc01215 	stw	r15,72(sp)
        /* 
         * Restore the saved registers, so that all general purpose registers 
         * have been restored to their state at the time the interrupt occured.
         */

        ldw   r5,  68(sp)
 40000a8:	d9401117 	ldw	r5,68(sp)
        ldw   ea,  72(sp)  /* This becomes the PC once eret is executed */
 40000ac:	df401217 	ldw	ea,72(sp)
        ldw   ra,   0(sp)
 40000b0:	dfc00017 	ldw	ra,0(sp)

        wrctl estatus, r5
 40000b4:	2801707a 	wrctl	estatus,r5

        ldw   r1,   8(sp)
 40000b8:	d8400217 	ldw	at,8(sp)
        ldw   r2,  12(sp)
 40000bc:	d8800317 	ldw	r2,12(sp)
        ldw   r3,  16(sp)
 40000c0:	d8c00417 	ldw	r3,16(sp)
        ldw   r4,  20(sp)
 40000c4:	d9000517 	ldw	r4,20(sp)
        ldw   r5,  24(sp)
 40000c8:	d9400617 	ldw	r5,24(sp)
        ldw   r6,  28(sp)
 40000cc:	d9800717 	ldw	r6,28(sp)
        ldw   r7,  32(sp)
 40000d0:	d9c00817 	ldw	r7,32(sp)

#if defined(ALT_EXCEPTION_STACK) && defined(ALT_STACK_CHECK)
        ldw   et, %gprel(alt_exception_old_stack_limit)(gp)
#endif

        ldw   r8,  36(sp)
 40000d4:	da000917 	ldw	r8,36(sp)
        ldw   r9,  40(sp)
 40000d8:	da400a17 	ldw	r9,40(sp)
        ldw   r10, 44(sp)
 40000dc:	da800b17 	ldw	r10,44(sp)
        ldw   r11, 48(sp)
 40000e0:	dac00c17 	ldw	r11,48(sp)
        ldw   r12, 52(sp)
 40000e4:	db000d17 	ldw	r12,52(sp)
        ldw   r13, 56(sp)
 40000e8:	db400e17 	ldw	r13,56(sp)
        ldw   r14, 60(sp)
 40000ec:	db800f17 	ldw	r14,60(sp)
        ldw   r15, 64(sp)
 40000f0:	dbc01017 	ldw	r15,64(sp)
        stw   et, %gprel(alt_stack_limit_value)(gp)
        stw   zero, %gprel(alt_exception_old_stack_limit)(gp)
#endif /* ALT_STACK_CHECK */
        ldw   sp,  76(sp)
#else /* ALT_EXCEPTION_STACK disabled */
        addi  sp, sp, 76
 40000f4:	dec01304 	addi	sp,sp,76

        /*
         * Return to the interrupted instruction.
         */

        eret
 40000f8:	ef80083a 	eret

040000fc <alt_irq_handler>:
 * instruction is present if the macro ALT_CI_INTERRUPT_VECTOR defined.
 */

void alt_irq_handler (void) __attribute__ ((section (".exceptions")));
void alt_irq_handler (void)
{
 40000fc:	defff904 	addi	sp,sp,-28
 4000100:	dfc00615 	stw	ra,24(sp)
 4000104:	df000515 	stw	fp,20(sp)
 4000108:	df000504 	addi	fp,sp,20
  
  /*
   * Notify the operating system that we are at interrupt level.
   */ 
  
  ALT_OS_INT_ENTER();
 400010c:	0001883a 	nop
#ifndef NIOS2_EIC_PRESENT
static ALT_INLINE alt_u32 ALT_ALWAYS_INLINE alt_irq_pending (void)
{
  alt_u32 active;

  NIOS2_READ_IPENDING (active);
 4000110:	0005313a 	rdctl	r2,ipending
 4000114:	e0bffe15 	stw	r2,-8(fp)

  return active;
 4000118:	e0bffe17 	ldw	r2,-8(fp)
   * Consider the case where the high priority interupt is asserted during
   * the interrupt entry sequence for a lower priority interrupt to see why
   * this is the case.
   */

  active = alt_irq_pending ();
 400011c:	e0bffb15 	stw	r2,-20(fp)

  do
  {
    i = 0;
 4000120:	e03ffd15 	stw	zero,-12(fp)
    mask = 1;
 4000124:	00800044 	movi	r2,1
 4000128:	e0bffc15 	stw	r2,-16(fp)
     * called to clear the interrupt condition.
     */

    do
    {
      if (active & mask)
 400012c:	e0fffb17 	ldw	r3,-20(fp)
 4000130:	e0bffc17 	ldw	r2,-16(fp)
 4000134:	1884703a 	and	r2,r3,r2
 4000138:	10001426 	beq	r2,zero,400018c <alt_irq_handler+0x90>
      { 
#ifdef ALT_ENHANCED_INTERRUPT_API_PRESENT
        alt_irq[i].handler(alt_irq[i].context); 
 400013c:	00810074 	movhi	r2,1025
 4000140:	109c4704 	addi	r2,r2,28956
 4000144:	e0fffd17 	ldw	r3,-12(fp)
 4000148:	180690fa 	slli	r3,r3,3
 400014c:	10c5883a 	add	r2,r2,r3
 4000150:	10c00017 	ldw	r3,0(r2)
 4000154:	00810074 	movhi	r2,1025
 4000158:	109c4704 	addi	r2,r2,28956
 400015c:	e13ffd17 	ldw	r4,-12(fp)
 4000160:	200890fa 	slli	r4,r4,3
 4000164:	1105883a 	add	r2,r2,r4
 4000168:	10800104 	addi	r2,r2,4
 400016c:	10800017 	ldw	r2,0(r2)
 4000170:	1009883a 	mov	r4,r2
 4000174:	183ee83a 	callr	r3
#else
        alt_irq[i].handler(alt_irq[i].context, i); 
#endif
        break;
 4000178:	0001883a 	nop
#ifndef NIOS2_EIC_PRESENT
static ALT_INLINE alt_u32 ALT_ALWAYS_INLINE alt_irq_pending (void)
{
  alt_u32 active;

  NIOS2_READ_IPENDING (active);
 400017c:	0005313a 	rdctl	r2,ipending
 4000180:	e0bfff15 	stw	r2,-4(fp)

  return active;
 4000184:	e0bfff17 	ldw	r2,-4(fp)
 4000188:	00000706 	br	40001a8 <alt_irq_handler+0xac>
      }
      mask <<= 1;
 400018c:	e0bffc17 	ldw	r2,-16(fp)
 4000190:	1085883a 	add	r2,r2,r2
 4000194:	e0bffc15 	stw	r2,-16(fp)
      i++;
 4000198:	e0bffd17 	ldw	r2,-12(fp)
 400019c:	10800044 	addi	r2,r2,1
 40001a0:	e0bffd15 	stw	r2,-12(fp)

    } while (1);
 40001a4:	003fe106 	br	400012c <__reset+0xfa81012c>

    active = alt_irq_pending ();
 40001a8:	e0bffb15 	stw	r2,-20(fp)
    
  } while (active);
 40001ac:	e0bffb17 	ldw	r2,-20(fp)
 40001b0:	103fdb1e 	bne	r2,zero,4000120 <__reset+0xfa810120>

  /*
   * Notify the operating system that interrupt processing is complete.
   */ 

  ALT_OS_INT_EXIT();
 40001b4:	0001883a 	nop
}
 40001b8:	0001883a 	nop
 40001bc:	e037883a 	mov	sp,fp
 40001c0:	dfc00117 	ldw	ra,4(sp)
 40001c4:	df000017 	ldw	fp,0(sp)
 40001c8:	dec00204 	addi	sp,sp,8
 40001cc:	f800283a 	ret

040001d0 <alt_instruction_exception_entry>:
 * that handler if it has been registered. Absent a handler, it will
 * break break or hang as discussed below.
 */
int 
alt_instruction_exception_entry (alt_u32 exception_pc)
{
 40001d0:	defffb04 	addi	sp,sp,-20
 40001d4:	dfc00415 	stw	ra,16(sp)
 40001d8:	df000315 	stw	fp,12(sp)
 40001dc:	df000304 	addi	fp,sp,12
 40001e0:	e13fff15 	stw	r4,-4(fp)
 * NIOS2_EXCEPTION_CAUSE_NOT_PRESENT. Your handling routine should
 * check the validity of the cause argument before proceeding.
 */
#ifdef NIOS2_HAS_EXTRA_EXCEPTION_INFO
  /* Get exception cause & "badaddr" */
  NIOS2_READ_EXCEPTION(cause);
 40001e4:	000531fa 	rdctl	r2,exception
 40001e8:	e0bffd15 	stw	r2,-12(fp)
  cause = ( (cause & NIOS2_EXCEPTION_REG_CAUSE_MASK) >>
 40001ec:	e0bffd17 	ldw	r2,-12(fp)
 40001f0:	10801f0c 	andi	r2,r2,124
 40001f4:	1004d0ba 	srli	r2,r2,2
 40001f8:	e0bffd15 	stw	r2,-12(fp)
              NIOS2_EXCEPTION_REG_CAUSE_OFST );

  NIOS2_READ_BADADDR(badaddr);
 40001fc:	0005333a 	rdctl	r2,badaddr
 4000200:	e0bffe15 	stw	r2,-8(fp)
#else
  cause = NIOS2_EXCEPTION_CAUSE_NOT_PRESENT;
  badaddr = 0;
#endif /* NIOS2_HAS_EXTRA_EXCEPTION_INFO */

  if(alt_instruction_exception_handler) {
 4000204:	d0a02317 	ldw	r2,-32628(gp)
 4000208:	10000726 	beq	r2,zero,4000228 <alt_instruction_exception_entry+0x58>
     * Call handler. Its return value indicates whether the exception-causing
     * instruction should be re-issued. The code that called us,
     * alt_eceptions_entry.S, will look at this value and adjust the ea
     * register as necessary
     */
    return alt_instruction_exception_handler(cause, exception_pc, badaddr);
 400020c:	d0a02317 	ldw	r2,-32628(gp)
 4000210:	e0fffd17 	ldw	r3,-12(fp)
 4000214:	e1bffe17 	ldw	r6,-8(fp)
 4000218:	e17fff17 	ldw	r5,-4(fp)
 400021c:	1809883a 	mov	r4,r3
 4000220:	103ee83a 	callr	r2
 4000224:	00000206 	br	4000230 <alt_instruction_exception_entry+0x60>
   *    (a peripheral which negates its interrupt output before its
   *    interrupt handler has been executed will cause spurious interrupts)
   */
  else {
#ifdef NIOS2_HAS_DEBUG_STUB
    NIOS2_BREAK();
 4000228:	003da03a 	break	0
      ;
#endif /* NIOS2_HAS_DEBUG_STUB */
  }

  /* We should not get here. Remove compiler warning. */
  return NIOS2_EXCEPTION_RETURN_REISSUE_INST;
 400022c:	0005883a 	mov	r2,zero
}
 4000230:	e037883a 	mov	sp,fp
 4000234:	dfc00117 	ldw	ra,4(sp)
 4000238:	df000017 	ldw	fp,0(sp)
 400023c:	dec00204 	addi	sp,sp,8
 4000240:	f800283a 	ret

Disassembly of section .text:

04000244 <_start>:

    /* Assume the data cache size is always a power of two. */
#if NIOS2_DCACHE_SIZE > 0x8000
    movhi r2, %hi(NIOS2_DCACHE_SIZE)
#else
    movui r2, NIOS2_DCACHE_SIZE
 4000244:	00820014 	movui	r2,2048
#endif

0:
    initd 0(r2)
 4000248:	10000033 	initd	0(r2)
#ifdef NIOS2_ECC_PRESENT
    addi r2, r2, -4
#else
    addi r2, r2, -NIOS2_DCACHE_LINE_SIZE
 400024c:	10bff804 	addi	r2,r2,-32
#endif
    bgt r2, zero, 0b
 4000250:	00bffd16 	blt	zero,r2,4000248 <__reset+0xfa810248>

    /*
     * Now that the caches are initialized, set up the stack pointer and global pointer.
     * The values provided by the linker are assumed to be correctly aligned.
     */
    movhi sp, %hi(__alt_stack_pointer)
 4000254:	06c20034 	movhi	sp,2048
    ori sp, sp, %lo(__alt_stack_pointer)
 4000258:	dec00014 	ori	sp,sp,0
    movhi gp, %hi(_gp)
 400025c:	06810074 	movhi	gp,1025
    ori gp, gp, %lo(_gp)
 4000260:	d6bc0d14 	ori	gp,gp,61492
 */
#ifndef ALT_SIM_OPTIMIZE
    /* Log that the BSS is about to be cleared. */
    ALT_LOG_PUTS(alt_log_msg_bss)

    movhi r2, %hi(__bss_start)
 4000264:	00810074 	movhi	r2,1025
    ori r2, r2, %lo(__bss_start)
 4000268:	109c2014 	ori	r2,r2,28800

    movhi r3, %hi(__bss_end)
 400026c:	00c10074 	movhi	r3,1025
    ori r3, r3, %lo(__bss_end)
 4000270:	18dc8714 	ori	r3,r3,29212

    beq r2, r3, 1f
 4000274:	10c00326 	beq	r2,r3,4000284 <_start+0x40>

0:
    stw zero, (r2)
 4000278:	10000015 	stw	zero,0(r2)
    addi r2, r2, 4
 400027c:	10800104 	addi	r2,r2,4
    bltu r2, r3, 0b
 4000280:	10fffd36 	bltu	r2,r3,4000278 <__reset+0xfa810278>

    /* Log that alt_main is about to be called. */
    ALT_LOG_PUTS(alt_log_msg_alt_main)

    /* Call the C entry point. It should never return. */
    call alt_main
 4000284:	400f1140 	call	400f114 <alt_main>

04000288 <alt_after_alt_main>:

    /* Wait in infinite loop in case alt_main does return. */
alt_after_alt_main:
    br alt_after_alt_main
 4000288:	003fff06 	br	4000288 <__reset+0xfa810288>

0400028c <codec_wm8731_init>:
 * Purpose :
 * Return  : none
 *--------------------------------------------------*/

void codec_wm8731_init(void)
{
 400028c:	defffe04 	addi	sp,sp,-8
 4000290:	dfc00115 	stw	ra,4(sp)
 4000294:	df000015 	stw	fp,0(sp)
 4000298:	d839883a 	mov	fp,sp
	i2c_dev = alt_up_av_config_open_dev("/dev/audio_and_video_config_0");//Opens the Audio/Video Configuration device specified by name
 400029c:	01010074 	movhi	r4,1025
 40002a0:	210d0704 	addi	r4,r4,13340
 40002a4:	4011f780 	call	4011f78 <alt_up_av_config_open_dev>
 40002a8:	d0a01315 	stw	r2,-32692(gp)
	alt_up_av_config_write_audio_cfg_register(i2c_dev,0x0F,0x000); //Reset
 40002ac:	d0a01317 	ldw	r2,-32692(gp)
 40002b0:	000d883a 	mov	r6,zero
 40002b4:	014003c4 	movi	r5,15
 40002b8:	1009883a 	mov	r4,r2
 40002bc:	40121f00 	call	40121f0 <alt_up_av_config_write_audio_cfg_register>
	alt_up_av_config_write_audio_cfg_register(i2c_dev,0x00,0x01A); //Left Line In Enable Mute 80
 40002c0:	d0a01317 	ldw	r2,-32692(gp)
 40002c4:	01800684 	movi	r6,26
 40002c8:	000b883a 	mov	r5,zero
 40002cc:	1009883a 	mov	r4,r2
 40002d0:	40121f00 	call	40121f0 <alt_up_av_config_write_audio_cfg_register>
	alt_up_av_config_write_audio_cfg_register(i2c_dev,0x01,0x01A); //Right Line In Enable Mute
 40002d4:	d0a01317 	ldw	r2,-32692(gp)
 40002d8:	01800684 	movi	r6,26
 40002dc:	01400044 	movi	r5,1
 40002e0:	1009883a 	mov	r4,r2
 40002e4:	40121f00 	call	40121f0 <alt_up_av_config_write_audio_cfg_register>
	alt_up_av_config_write_audio_cfg_register(i2c_dev,0x02,0x079); //Left Headphone Out Mute and Enable Simultaneous Load of LHPVOL[6:0] and LZCEN to RHPVOL[6:0] and RZCEN
 40002e8:	d0a01317 	ldw	r2,-32692(gp)
 40002ec:	01801e44 	movi	r6,121
 40002f0:	01400084 	movi	r5,2
 40002f4:	1009883a 	mov	r4,r2
 40002f8:	40121f00 	call	40121f0 <alt_up_av_config_write_audio_cfg_register>
	alt_up_av_config_write_audio_cfg_register(i2c_dev,0x03,0x079); //Left Headphone Out Mute and Enable Simultaneous Load of LHPVOL[6:0] and LZCEN to RHPVOL[6:0] and RZCEN
 40002fc:	d0a01317 	ldw	r2,-32692(gp)
 4000300:	01801e44 	movi	r6,121
 4000304:	014000c4 	movi	r5,3
 4000308:	1009883a 	mov	r4,r2
 400030c:	40121f00 	call	40121f0 <alt_up_av_config_write_audio_cfg_register>
	alt_up_av_config_write_audio_cfg_register(i2c_dev,0x04,0x010); //Analogue Audio Path Control DAC select
 4000310:	d0a01317 	ldw	r2,-32692(gp)
 4000314:	01800404 	movi	r6,16
 4000318:	01400104 	movi	r5,4
 400031c:	1009883a 	mov	r4,r2
 4000320:	40121f00 	call	40121f0 <alt_up_av_config_write_audio_cfg_register>
	alt_up_av_config_write_audio_cfg_register(i2c_dev,0x05,0x007);//DAC Path Control enable high pass filter, 48kHz
 4000324:	d0a01317 	ldw	r2,-32692(gp)
 4000328:	018001c4 	movi	r6,7
 400032c:	01400144 	movi	r5,5
 4000330:	1009883a 	mov	r4,r2
 4000334:	40121f00 	call	40121f0 <alt_up_av_config_write_audio_cfg_register>
	alt_up_av_config_write_audio_cfg_register(i2c_dev,0x06,0x000); //Power Down Control enable Power Down for line input, mic input & ADC
 4000338:	d0a01317 	ldw	r2,-32692(gp)
 400033c:	000d883a 	mov	r6,zero
 4000340:	01400184 	movi	r5,6
 4000344:	1009883a 	mov	r4,r2
 4000348:	40121f00 	call	40121f0 <alt_up_av_config_write_audio_cfg_register>
	alt_up_av_config_write_audio_cfg_register(i2c_dev,0x07,0x079); //Digital Audio Interface Format Left Justified,  Right Channel DAC Data Left, enable Master Mode
 400034c:	d0a01317 	ldw	r2,-32692(gp)
 4000350:	01801e44 	movi	r6,121
 4000354:	014001c4 	movi	r5,7
 4000358:	1009883a 	mov	r4,r2
 400035c:	40121f00 	call	40121f0 <alt_up_av_config_write_audio_cfg_register>
	alt_up_av_config_write_audio_cfg_register(i2c_dev,0x08,0x001); //Sampling Control USB Mode 250fs
 4000360:	d0a01317 	ldw	r2,-32692(gp)
 4000364:	01800044 	movi	r6,1
 4000368:	01400204 	movi	r5,8
 400036c:	1009883a 	mov	r4,r2
 4000370:	40121f00 	call	40121f0 <alt_up_av_config_write_audio_cfg_register>
	alt_up_av_config_write_audio_cfg_register(i2c_dev,0x09,0x001); //activat DIGITAL AUDIO INTERFACE
 4000374:	d0a01317 	ldw	r2,-32692(gp)
 4000378:	01800044 	movi	r6,1
 400037c:	01400244 	movi	r5,9
 4000380:	1009883a 	mov	r4,r2
 4000384:	40121f00 	call	40121f0 <alt_up_av_config_write_audio_cfg_register>
}
 4000388:	0001883a 	nop
 400038c:	e037883a 	mov	sp,fp
 4000390:	dfc00117 	ldw	ra,4(sp)
 4000394:	df000017 	ldw	fp,0(sp)
 4000398:	dec00204 	addi	sp,sp,8
 400039c:	f800283a 	ret

040003a0 <set_vol_test>:

void set_vol_test(alt_u8 vol_bar)
{
 40003a0:	defffa04 	addi	sp,sp,-24
 40003a4:	dfc00515 	stw	ra,20(sp)
 40003a8:	df000415 	stw	fp,16(sp)
 40003ac:	df000404 	addi	fp,sp,16
 40003b0:	2005883a 	mov	r2,r4
 40003b4:	e0bfff05 	stb	r2,-4(fp)
	alt_u8 vol [10]={47,48,70,92,114,121,140,160,180,200};
 40003b8:	00800bc4 	movi	r2,47
 40003bc:	e0bffc05 	stb	r2,-16(fp)
 40003c0:	00800c04 	movi	r2,48
 40003c4:	e0bffc45 	stb	r2,-15(fp)
 40003c8:	00801184 	movi	r2,70
 40003cc:	e0bffc85 	stb	r2,-14(fp)
 40003d0:	00801704 	movi	r2,92
 40003d4:	e0bffcc5 	stb	r2,-13(fp)
 40003d8:	00801c84 	movi	r2,114
 40003dc:	e0bffd05 	stb	r2,-12(fp)
 40003e0:	00801e44 	movi	r2,121
 40003e4:	e0bffd45 	stb	r2,-11(fp)
 40003e8:	00bfe304 	movi	r2,-116
 40003ec:	e0bffd85 	stb	r2,-10(fp)
 40003f0:	00bfe804 	movi	r2,-96
 40003f4:	e0bffdc5 	stb	r2,-9(fp)
 40003f8:	00bfed04 	movi	r2,-76
 40003fc:	e0bffe05 	stb	r2,-8(fp)
 4000400:	00bff204 	movi	r2,-56
 4000404:	e0bffe45 	stb	r2,-7(fp)
	alt_up_av_config_write_audio_cfg_register(i2c_dev,0x02,0x07F);
 4000408:	d0a01317 	ldw	r2,-32692(gp)
 400040c:	01801fc4 	movi	r6,127
 4000410:	01400084 	movi	r5,2
 4000414:	1009883a 	mov	r4,r2
 4000418:	40121f00 	call	40121f0 <alt_up_av_config_write_audio_cfg_register>
	//alt_up_av_config_write_audio_cfg_register(i2c_dev,0x02,vol[vol_bar]|256);

}
 400041c:	0001883a 	nop
 4000420:	e037883a 	mov	sp,fp
 4000424:	dfc00117 	ldw	ra,4(sp)
 4000428:	df000017 	ldw	fp,0(sp)
 400042c:	dec00204 	addi	sp,sp,8
 4000430:	f800283a 	ret

04000434 <draw_main_screen>:
 * Function:
 * Purpose :
 * Return  : none
 *--------------------------------------------------*/
void draw_main_screen(void)
{
 4000434:	defffc04 	addi	sp,sp,-16
 4000438:	dfc00315 	stw	ra,12(sp)
 400043c:	df000215 	stw	fp,8(sp)
 4000440:	df000204 	addi	fp,sp,8
	LCD_DrawRect(15,10,75,310,GREY);
 4000444:	00af6f54 	movui	r2,48573
 4000448:	d8800015 	stw	r2,0(sp)
 400044c:	01c04d84 	movi	r7,310
 4000450:	018012c4 	movi	r6,75
 4000454:	01400284 	movi	r5,10
 4000458:	010003c4 	movi	r4,15
 400045c:	400fb480 	call	400fb48 <LCD_DrawRect>
	vid_print_string(80,34,BLACK,&arial_22ptBitmaps,&arial_22ptDescriptors,"Calibrate");
 4000460:	00810074 	movhi	r2,1025
 4000464:	1092b504 	addi	r2,r2,19156
 4000468:	d8800115 	stw	r2,4(sp)
 400046c:	00810074 	movhi	r2,1025
 4000470:	10925584 	addi	r2,r2,18774
 4000474:	d8800015 	stw	r2,0(sp)
 4000478:	01c10074 	movhi	r7,1025
 400047c:	39cd0e84 	addi	r7,r7,13370
 4000480:	000d883a 	mov	r6,zero
 4000484:	01400884 	movi	r5,34
 4000488:	01001404 	movi	r4,80
 400048c:	40011940 	call	4001194 <vid_print_string>
	LCD_DrawRect(90,10,150,310,GREY);
 4000490:	00af6f54 	movui	r2,48573
 4000494:	d8800015 	stw	r2,0(sp)
 4000498:	01c04d84 	movi	r7,310
 400049c:	01802584 	movi	r6,150
 40004a0:	01400284 	movi	r5,10
 40004a4:	01001684 	movi	r4,90
 40004a8:	400fb480 	call	400fb48 <LCD_DrawRect>
	vid_print_string(80,109,BLACK,&arial_22ptBitmaps,&arial_22ptDescriptors,"Volume");
 40004ac:	00810074 	movhi	r2,1025
 40004b0:	1092b804 	addi	r2,r2,19168
 40004b4:	d8800115 	stw	r2,4(sp)
 40004b8:	00810074 	movhi	r2,1025
 40004bc:	10925584 	addi	r2,r2,18774
 40004c0:	d8800015 	stw	r2,0(sp)
 40004c4:	01c10074 	movhi	r7,1025
 40004c8:	39cd0e84 	addi	r7,r7,13370
 40004cc:	000d883a 	mov	r6,zero
 40004d0:	01401b44 	movi	r5,109
 40004d4:	01001404 	movi	r4,80
 40004d8:	40011940 	call	4001194 <vid_print_string>
	LCD_DrawRect(165,10,225,310,GREY);
 40004dc:	00af6f54 	movui	r2,48573
 40004e0:	d8800015 	stw	r2,0(sp)
 40004e4:	01c04d84 	movi	r7,310
 40004e8:	01803844 	movi	r6,225
 40004ec:	01400284 	movi	r5,10
 40004f0:	01002944 	movi	r4,165
 40004f4:	400fb480 	call	400fb48 <LCD_DrawRect>
	vid_print_string(80,184,BLACK,&arial_22ptBitmaps,&arial_22ptDescriptors,"Play Help");
 40004f8:	00810074 	movhi	r2,1025
 40004fc:	1092ba04 	addi	r2,r2,19176
 4000500:	d8800115 	stw	r2,4(sp)
 4000504:	00810074 	movhi	r2,1025
 4000508:	10925584 	addi	r2,r2,18774
 400050c:	d8800015 	stw	r2,0(sp)
 4000510:	01c10074 	movhi	r7,1025
 4000514:	39cd0e84 	addi	r7,r7,13370
 4000518:	000d883a 	mov	r6,zero
 400051c:	01402e04 	movi	r5,184
 4000520:	01001404 	movi	r4,80
 4000524:	40011940 	call	4001194 <vid_print_string>
}
 4000528:	0001883a 	nop
 400052c:	e037883a 	mov	sp,fp
 4000530:	dfc00117 	ldw	ra,4(sp)
 4000534:	df000017 	ldw	fp,0(sp)
 4000538:	dec00204 	addi	sp,sp,8
 400053c:	f800283a 	ret

04000540 <draw_calibrating_screen>:
 * Function:
 * Purpose :
 * Return  : none
 *--------------------------------------------------*/
void draw_calibrating_screen(void)
{
 4000540:	defffa04 	addi	sp,sp,-24
 4000544:	dfc00515 	stw	ra,20(sp)
 4000548:	df000415 	stw	fp,16(sp)
 400054c:	df000404 	addi	fp,sp,16
	alt_u8 cnt_point = 0;
 4000550:	e03ffe05 	stb	zero,-8(fp)
	vid_print_string(30,50,BLACK,&arial_22ptBitmaps,&arial_22ptDescriptors,"position hands!");
 4000554:	00810074 	movhi	r2,1025
 4000558:	1092bd04 	addi	r2,r2,19188
 400055c:	d8800115 	stw	r2,4(sp)
 4000560:	00810074 	movhi	r2,1025
 4000564:	10925584 	addi	r2,r2,18774
 4000568:	d8800015 	stw	r2,0(sp)
 400056c:	01c10074 	movhi	r7,1025
 4000570:	39cd0e84 	addi	r7,r7,13370
 4000574:	000d883a 	mov	r6,zero
 4000578:	01400c84 	movi	r5,50
 400057c:	01000784 	movi	r4,30
 4000580:	40011940 	call	4001194 <vid_print_string>
	usleep(2000000);
 4000584:	010007f4 	movhi	r4,31
 4000588:	21212004 	addi	r4,r4,-31616
 400058c:	400f5c80 	call	400f5c8 <usleep>
	set_calibration_pitch();
 4000590:	40103980 	call	4010398 <set_calibration_pitch>
	set_calibration_vol_gen();
 4000594:	40106280 	call	4010628 <set_calibration_vol_gen>
	LCD_Clear(WHITE);
 4000598:	013fffd4 	movui	r4,65535
 400059c:	400fa4c0 	call	400fa4c <LCD_Clear>

	while(done_calibration_pitch()!= 2 && done_calibration_vol_gen()!= 2 && cnt_point <= 5){
 40005a0:	00002d06 	br	4000658 <draw_calibrating_screen+0x118>
		vid_print_string(80,50,BLACK,&arial_22ptBitmaps,&arial_22ptDescriptors,"calibrating");
 40005a4:	00810074 	movhi	r2,1025
 40005a8:	1092c104 	addi	r2,r2,19204
 40005ac:	d8800115 	stw	r2,4(sp)
 40005b0:	00810074 	movhi	r2,1025
 40005b4:	10925584 	addi	r2,r2,18774
 40005b8:	d8800015 	stw	r2,0(sp)
 40005bc:	01c10074 	movhi	r7,1025
 40005c0:	39cd0e84 	addi	r7,r7,13370
 40005c4:	000d883a 	mov	r6,zero
 40005c8:	01400c84 	movi	r5,50
 40005cc:	01001404 	movi	r4,80
 40005d0:	40011940 	call	4001194 <vid_print_string>
		for(int i = 0; i < cnt_point; i++){
 40005d4:	e03fff15 	stw	zero,-4(fp)
 40005d8:	00001206 	br	4000624 <draw_calibrating_screen+0xe4>
			vid_print_string((150+i*10),100,BLACK,&arial_22ptBitmaps,&arial_22ptDescriptors,".");
 40005dc:	e0bfff17 	ldw	r2,-4(fp)
 40005e0:	108002a4 	muli	r2,r2,10
 40005e4:	10c02584 	addi	r3,r2,150
 40005e8:	00810074 	movhi	r2,1025
 40005ec:	1092c404 	addi	r2,r2,19216
 40005f0:	d8800115 	stw	r2,4(sp)
 40005f4:	00810074 	movhi	r2,1025
 40005f8:	10925584 	addi	r2,r2,18774
 40005fc:	d8800015 	stw	r2,0(sp)
 4000600:	01c10074 	movhi	r7,1025
 4000604:	39cd0e84 	addi	r7,r7,13370
 4000608:	000d883a 	mov	r6,zero
 400060c:	01401904 	movi	r5,100
 4000610:	1809883a 	mov	r4,r3
 4000614:	40011940 	call	4001194 <vid_print_string>
	set_calibration_vol_gen();
	LCD_Clear(WHITE);

	while(done_calibration_pitch()!= 2 && done_calibration_vol_gen()!= 2 && cnt_point <= 5){
		vid_print_string(80,50,BLACK,&arial_22ptBitmaps,&arial_22ptDescriptors,"calibrating");
		for(int i = 0; i < cnt_point; i++){
 4000618:	e0bfff17 	ldw	r2,-4(fp)
 400061c:	10800044 	addi	r2,r2,1
 4000620:	e0bfff15 	stw	r2,-4(fp)
 4000624:	e0bffe03 	ldbu	r2,-8(fp)
 4000628:	e0ffff17 	ldw	r3,-4(fp)
 400062c:	18bfeb16 	blt	r3,r2,40005dc <__reset+0xfa8105dc>
			vid_print_string((150+i*10),100,BLACK,&arial_22ptBitmaps,&arial_22ptDescriptors,".");
		}
		usleep(1000000);
 4000630:	010003f4 	movhi	r4,15
 4000634:	21109004 	addi	r4,r4,16960
 4000638:	400f5c80 	call	400f5c8 <usleep>
		cnt_point += 1;
 400063c:	e0bffe03 	ldbu	r2,-8(fp)
 4000640:	10800044 	addi	r2,r2,1
 4000644:	e0bffe05 	stb	r2,-8(fp)
		if (cnt_point > 10){
 4000648:	e0bffe03 	ldbu	r2,-8(fp)
 400064c:	108002f0 	cmpltui	r2,r2,11
 4000650:	1000011e 	bne	r2,zero,4000658 <draw_calibrating_screen+0x118>
			cnt_point = 0;
 4000654:	e03ffe05 	stb	zero,-8(fp)
	usleep(2000000);
	set_calibration_pitch();
	set_calibration_vol_gen();
	LCD_Clear(WHITE);

	while(done_calibration_pitch()!= 2 && done_calibration_vol_gen()!= 2 && cnt_point <= 5){
 4000658:	40103c80 	call	40103c8 <done_calibration_pitch>
 400065c:	108000a0 	cmpeqi	r2,r2,2
 4000660:	1000061e 	bne	r2,zero,400067c <draw_calibrating_screen+0x13c>
 4000664:	40106580 	call	4010658 <done_calibration_vol_gen>
 4000668:	108000a0 	cmpeqi	r2,r2,2
 400066c:	1000031e 	bne	r2,zero,400067c <draw_calibrating_screen+0x13c>
 4000670:	e0bffe03 	ldbu	r2,-8(fp)
 4000674:	108001b0 	cmpltui	r2,r2,6
 4000678:	103fca1e 	bne	r2,zero,40005a4 <__reset+0xfa8105a4>
		cnt_point += 1;
		if (cnt_point > 10){
			cnt_point = 0;
		}
	}
	LCD_Clear(WHITE);
 400067c:	013fffd4 	movui	r4,65535
 4000680:	400fa4c0 	call	400fa4c <LCD_Clear>
	draw_calibrating_screen_done();
 4000684:	40006a00 	call	40006a0 <draw_calibrating_screen_done>

}
 4000688:	0001883a 	nop
 400068c:	e037883a 	mov	sp,fp
 4000690:	dfc00117 	ldw	ra,4(sp)
 4000694:	df000017 	ldw	fp,0(sp)
 4000698:	dec00204 	addi	sp,sp,8
 400069c:	f800283a 	ret

040006a0 <draw_calibrating_screen_done>:

void draw_calibrating_screen_done(void)
{
 40006a0:	defffc04 	addi	sp,sp,-16
 40006a4:	dfc00315 	stw	ra,12(sp)
 40006a8:	df000215 	stw	fp,8(sp)
 40006ac:	df000204 	addi	fp,sp,8
	vid_print_string(80,50,BLACK,&arial_22ptBitmaps,&arial_22ptDescriptors,"calibrating");
 40006b0:	00810074 	movhi	r2,1025
 40006b4:	1092c104 	addi	r2,r2,19204
 40006b8:	d8800115 	stw	r2,4(sp)
 40006bc:	00810074 	movhi	r2,1025
 40006c0:	10925584 	addi	r2,r2,18774
 40006c4:	d8800015 	stw	r2,0(sp)
 40006c8:	01c10074 	movhi	r7,1025
 40006cc:	39cd0e84 	addi	r7,r7,13370
 40006d0:	000d883a 	mov	r6,zero
 40006d4:	01400c84 	movi	r5,50
 40006d8:	01001404 	movi	r4,80
 40006dc:	40011940 	call	4001194 <vid_print_string>
	vid_print_string(150,100,BLACK,&arial_22ptBitmaps,&arial_22ptDescriptors,"done");
 40006e0:	00810074 	movhi	r2,1025
 40006e4:	1092c504 	addi	r2,r2,19220
 40006e8:	d8800115 	stw	r2,4(sp)
 40006ec:	00810074 	movhi	r2,1025
 40006f0:	10925584 	addi	r2,r2,18774
 40006f4:	d8800015 	stw	r2,0(sp)
 40006f8:	01c10074 	movhi	r7,1025
 40006fc:	39cd0e84 	addi	r7,r7,13370
 4000700:	000d883a 	mov	r6,zero
 4000704:	01401904 	movi	r5,100
 4000708:	01002584 	movi	r4,150
 400070c:	40011940 	call	4001194 <vid_print_string>
	LCD_DrawRect(170,10,230,110,GREY);
 4000710:	00af6f54 	movui	r2,48573
 4000714:	d8800015 	stw	r2,0(sp)
 4000718:	01c01b84 	movi	r7,110
 400071c:	01803984 	movi	r6,230
 4000720:	01400284 	movi	r5,10
 4000724:	01002a84 	movi	r4,170
 4000728:	400fb480 	call	400fb48 <LCD_DrawRect>
	vid_print_string(244,189,BLACK,&arial_22ptBitmaps,&arial_22ptDescriptors,"@");
 400072c:	00810074 	movhi	r2,1025
 4000730:	1092c704 	addi	r2,r2,19228
 4000734:	d8800115 	stw	r2,4(sp)
 4000738:	00810074 	movhi	r2,1025
 400073c:	10925584 	addi	r2,r2,18774
 4000740:	d8800015 	stw	r2,0(sp)
 4000744:	01c10074 	movhi	r7,1025
 4000748:	39cd0e84 	addi	r7,r7,13370
 400074c:	000d883a 	mov	r6,zero
 4000750:	01402f44 	movi	r5,189
 4000754:	01003d04 	movi	r4,244
 4000758:	40011940 	call	4001194 <vid_print_string>
}
 400075c:	0001883a 	nop
 4000760:	e037883a 	mov	sp,fp
 4000764:	dfc00117 	ldw	ra,4(sp)
 4000768:	df000017 	ldw	fp,0(sp)
 400076c:	dec00204 	addi	sp,sp,8
 4000770:	f800283a 	ret

04000774 <draw_volume_screen>:
 * Function:
 * Purpose :
 * Return  : none
 *--------------------------------------------------*/
void draw_volume_screen(void)
{
 4000774:	defffc04 	addi	sp,sp,-16
 4000778:	dfc00315 	stw	ra,12(sp)
 400077c:	df000215 	stw	fp,8(sp)
 4000780:	df000204 	addi	fp,sp,8
	vid_print_string(10,25,BLACK,&arial_22ptBitmaps,&arial_22ptDescriptors,"Volume");
 4000784:	00810074 	movhi	r2,1025
 4000788:	1092b804 	addi	r2,r2,19168
 400078c:	d8800115 	stw	r2,4(sp)
 4000790:	00810074 	movhi	r2,1025
 4000794:	10925584 	addi	r2,r2,18774
 4000798:	d8800015 	stw	r2,0(sp)
 400079c:	01c10074 	movhi	r7,1025
 40007a0:	39cd0e84 	addi	r7,r7,13370
 40007a4:	000d883a 	mov	r6,zero
 40007a8:	01400644 	movi	r5,25
 40007ac:	01000284 	movi	r4,10
 40007b0:	40011940 	call	4001194 <vid_print_string>
	LCD_DrawRect(55,10,115,90,GREY);
 40007b4:	00af6f54 	movui	r2,48573
 40007b8:	d8800015 	stw	r2,0(sp)
 40007bc:	01c01684 	movi	r7,90
 40007c0:	01801cc4 	movi	r6,115
 40007c4:	01400284 	movi	r5,10
 40007c8:	01000dc4 	movi	r4,55
 40007cc:	400fb480 	call	400fb48 <LCD_DrawRect>
	vid_print_string(260,60,BLACK,&arial_22ptBitmaps,&arial_22ptDescriptors,"_");
 40007d0:	00810074 	movhi	r2,1025
 40007d4:	1092c804 	addi	r2,r2,19232
 40007d8:	d8800115 	stw	r2,4(sp)
 40007dc:	00810074 	movhi	r2,1025
 40007e0:	10925584 	addi	r2,r2,18774
 40007e4:	d8800015 	stw	r2,0(sp)
 40007e8:	01c10074 	movhi	r7,1025
 40007ec:	39cd0e84 	addi	r7,r7,13370
 40007f0:	000d883a 	mov	r6,zero
 40007f4:	01400f04 	movi	r5,60
 40007f8:	01004104 	movi	r4,260
 40007fc:	40011940 	call	4001194 <vid_print_string>
	LCD_DrawRect(55,100,115,180,GREY);
 4000800:	00af6f54 	movui	r2,48573
 4000804:	d8800015 	stw	r2,0(sp)
 4000808:	01c02d04 	movi	r7,180
 400080c:	01801cc4 	movi	r6,115
 4000810:	01401904 	movi	r5,100
 4000814:	01000dc4 	movi	r4,55
 4000818:	400fb480 	call	400fb48 <LCD_DrawRect>
	vid_print_string(175,74,BLACK,&arial_22ptBitmaps,&arial_22ptDescriptors,"+");
 400081c:	00810074 	movhi	r2,1025
 4000820:	1092c904 	addi	r2,r2,19236
 4000824:	d8800115 	stw	r2,4(sp)
 4000828:	00810074 	movhi	r2,1025
 400082c:	10925584 	addi	r2,r2,18774
 4000830:	d8800015 	stw	r2,0(sp)
 4000834:	01c10074 	movhi	r7,1025
 4000838:	39cd0e84 	addi	r7,r7,13370
 400083c:	000d883a 	mov	r6,zero
 4000840:	01401284 	movi	r5,74
 4000844:	01002bc4 	movi	r4,175
 4000848:	40011940 	call	4001194 <vid_print_string>

	LCD_DrawRect(170,10,230,110,GREY);
 400084c:	00af6f54 	movui	r2,48573
 4000850:	d8800015 	stw	r2,0(sp)
 4000854:	01c01b84 	movi	r7,110
 4000858:	01803984 	movi	r6,230
 400085c:	01400284 	movi	r5,10
 4000860:	01002a84 	movi	r4,170
 4000864:	400fb480 	call	400fb48 <LCD_DrawRect>
	vid_print_string(244,189,BLACK,&arial_22ptBitmaps,&arial_22ptDescriptors,"@");
 4000868:	00810074 	movhi	r2,1025
 400086c:	1092c704 	addi	r2,r2,19228
 4000870:	d8800115 	stw	r2,4(sp)
 4000874:	00810074 	movhi	r2,1025
 4000878:	10925584 	addi	r2,r2,18774
 400087c:	d8800015 	stw	r2,0(sp)
 4000880:	01c10074 	movhi	r7,1025
 4000884:	39cd0e84 	addi	r7,r7,13370
 4000888:	000d883a 	mov	r6,zero
 400088c:	01402f44 	movi	r5,189
 4000890:	01003d04 	movi	r4,244
 4000894:	40011940 	call	4001194 <vid_print_string>
}
 4000898:	0001883a 	nop
 400089c:	e037883a 	mov	sp,fp
 40008a0:	dfc00117 	ldw	ra,4(sp)
 40008a4:	df000017 	ldw	fp,0(sp)
 40008a8:	dec00204 	addi	sp,sp,8
 40008ac:	f800283a 	ret

040008b0 <draw_update_volume_bar>:

void draw_update_volume_bar(alt_u8 vol_bar)
{
 40008b0:	defffb04 	addi	sp,sp,-20
 40008b4:	dfc00415 	stw	ra,16(sp)
 40008b8:	df000315 	stw	fp,12(sp)
 40008bc:	df000304 	addi	fp,sp,12
 40008c0:	2005883a 	mov	r2,r4
 40008c4:	e0bfff05 	stb	r2,-4(fp)
	alt_u8 i;
	LCD_DrawRect(55,195,115,310,GREY_SOFT);
 40008c8:	00b33314 	movui	r2,52428
 40008cc:	d8800015 	stw	r2,0(sp)
 40008d0:	01c04d84 	movi	r7,310
 40008d4:	01801cc4 	movi	r6,115
 40008d8:	014030c4 	movi	r5,195
 40008dc:	01000dc4 	movi	r4,55
 40008e0:	400fb480 	call	400fb48 <LCD_DrawRect>
	for(i = 0; i < vol_bar+1; i++){
 40008e4:	e03ffe05 	stb	zero,-8(fp)
 40008e8:	00001206 	br	4000934 <draw_update_volume_bar+0x84>
		LCD_DrawRect(60,(299-i*6-i*5),110,(299-i*6-i*5+6),GREEN);
 40008ec:	e0bffe03 	ldbu	r2,-8(fp)
 40008f0:	10bffd64 	muli	r2,r2,-11
 40008f4:	10804ac4 	addi	r2,r2,299
 40008f8:	10ffffcc 	andi	r3,r2,65535
 40008fc:	e0bffe03 	ldbu	r2,-8(fp)
 4000900:	10bffd64 	muli	r2,r2,-11
 4000904:	10804c44 	addi	r2,r2,305
 4000908:	113fffcc 	andi	r4,r2,65535
 400090c:	0081f804 	movi	r2,2016
 4000910:	d8800015 	stw	r2,0(sp)
 4000914:	200f883a 	mov	r7,r4
 4000918:	01801b84 	movi	r6,110
 400091c:	180b883a 	mov	r5,r3
 4000920:	01000f04 	movi	r4,60
 4000924:	400fb480 	call	400fb48 <LCD_DrawRect>

void draw_update_volume_bar(alt_u8 vol_bar)
{
	alt_u8 i;
	LCD_DrawRect(55,195,115,310,GREY_SOFT);
	for(i = 0; i < vol_bar+1; i++){
 4000928:	e0bffe03 	ldbu	r2,-8(fp)
 400092c:	10800044 	addi	r2,r2,1
 4000930:	e0bffe05 	stb	r2,-8(fp)
 4000934:	e0fffe03 	ldbu	r3,-8(fp)
 4000938:	e0bfff03 	ldbu	r2,-4(fp)
 400093c:	10800044 	addi	r2,r2,1
 4000940:	18bfea16 	blt	r3,r2,40008ec <__reset+0xfa8108ec>
		LCD_DrawRect(60,(299-i*6-i*5),110,(299-i*6-i*5+6),GREEN);
	}
}
 4000944:	0001883a 	nop
 4000948:	e037883a 	mov	sp,fp
 400094c:	dfc00117 	ldw	ra,4(sp)
 4000950:	df000017 	ldw	fp,0(sp)
 4000954:	dec00204 	addi	sp,sp,8
 4000958:	f800283a 	ret

0400095c <draw_help_screen>:
 * Function:
 * Purpose :
 * Return  : none
 *--------------------------------------------------*/
void draw_help_screen(void)
{
 400095c:	defffc04 	addi	sp,sp,-16
 4000960:	dfc00315 	stw	ra,12(sp)
 4000964:	df000215 	stw	fp,8(sp)
 4000968:	df000204 	addi	fp,sp,8

	LCD_DrawRect(15,10,75,90,GREY);
 400096c:	00af6f54 	movui	r2,48573
 4000970:	d8800015 	stw	r2,0(sp)
 4000974:	01c01684 	movi	r7,90
 4000978:	018012c4 	movi	r6,75
 400097c:	01400284 	movi	r5,10
 4000980:	010003c4 	movi	r4,15
 4000984:	400fb480 	call	400fb48 <LCD_DrawRect>
	vid_print_string(235,34,BLACK,&arial_22ptBitmaps,&arial_22ptDescriptors,"Set");
 4000988:	00810074 	movhi	r2,1025
 400098c:	1092ca04 	addi	r2,r2,19240
 4000990:	d8800115 	stw	r2,4(sp)
 4000994:	00810074 	movhi	r2,1025
 4000998:	10925584 	addi	r2,r2,18774
 400099c:	d8800015 	stw	r2,0(sp)
 40009a0:	01c10074 	movhi	r7,1025
 40009a4:	39cd0e84 	addi	r7,r7,13370
 40009a8:	000d883a 	mov	r6,zero
 40009ac:	01400884 	movi	r5,34
 40009b0:	01003ac4 	movi	r4,235
 40009b4:	40011940 	call	4001194 <vid_print_string>
	LCD_DrawRect(90,110,150,310,GREY);
 40009b8:	00af6f54 	movui	r2,48573
 40009bc:	d8800015 	stw	r2,0(sp)
 40009c0:	01c04d84 	movi	r7,310
 40009c4:	01802584 	movi	r6,150
 40009c8:	01401b84 	movi	r5,110
 40009cc:	01001684 	movi	r4,90
 40009d0:	400fb480 	call	400fb48 <LCD_DrawRect>
	vid_print_string(15,109,BLACK,&arial_22ptBitmaps,&arial_22ptDescriptors,"display pitch");
 40009d4:	00810074 	movhi	r2,1025
 40009d8:	1092cb04 	addi	r2,r2,19244
 40009dc:	d8800115 	stw	r2,4(sp)
 40009e0:	00810074 	movhi	r2,1025
 40009e4:	10925584 	addi	r2,r2,18774
 40009e8:	d8800015 	stw	r2,0(sp)
 40009ec:	01c10074 	movhi	r7,1025
 40009f0:	39cd0e84 	addi	r7,r7,13370
 40009f4:	000d883a 	mov	r6,zero
 40009f8:	01401b44 	movi	r5,109
 40009fc:	010003c4 	movi	r4,15
 4000a00:	40011940 	call	4001194 <vid_print_string>

	LCD_DrawRect(170,10,230,110,GREY);
 4000a04:	00af6f54 	movui	r2,48573
 4000a08:	d8800015 	stw	r2,0(sp)
 4000a0c:	01c01b84 	movi	r7,110
 4000a10:	01803984 	movi	r6,230
 4000a14:	01400284 	movi	r5,10
 4000a18:	01002a84 	movi	r4,170
 4000a1c:	400fb480 	call	400fb48 <LCD_DrawRect>
	vid_print_string(244,189,BLACK,&arial_22ptBitmaps,&arial_22ptDescriptors,"@");
 4000a20:	00810074 	movhi	r2,1025
 4000a24:	1092c704 	addi	r2,r2,19228
 4000a28:	d8800115 	stw	r2,4(sp)
 4000a2c:	00810074 	movhi	r2,1025
 4000a30:	10925584 	addi	r2,r2,18774
 4000a34:	d8800015 	stw	r2,0(sp)
 4000a38:	01c10074 	movhi	r7,1025
 4000a3c:	39cd0e84 	addi	r7,r7,13370
 4000a40:	000d883a 	mov	r6,zero
 4000a44:	01402f44 	movi	r5,189
 4000a48:	01003d04 	movi	r4,244
 4000a4c:	40011940 	call	4001194 <vid_print_string>

}
 4000a50:	0001883a 	nop
 4000a54:	e037883a 	mov	sp,fp
 4000a58:	dfc00117 	ldw	ra,4(sp)
 4000a5c:	df000017 	ldw	fp,0(sp)
 4000a60:	dec00204 	addi	sp,sp,8
 4000a64:	f800283a 	ret

04000a68 <draw_glissando_on_off>:

void draw_glissando_on_off(alt_u8 on_off){
 4000a68:	defffb04 	addi	sp,sp,-20
 4000a6c:	dfc00415 	stw	ra,16(sp)
 4000a70:	df000315 	stw	fp,12(sp)
 4000a74:	df000304 	addi	fp,sp,12
 4000a78:	2005883a 	mov	r2,r4
 4000a7c:	e0bfff05 	stb	r2,-4(fp)
	if(on_off == 1){
 4000a80:	e0bfff03 	ldbu	r2,-4(fp)
 4000a84:	10800058 	cmpnei	r2,r2,1
 4000a88:	1000141e 	bne	r2,zero,4000adc <draw_glissando_on_off+0x74>
		LCD_DrawRect(15,110,75,310,GREEN);
 4000a8c:	0081f804 	movi	r2,2016
 4000a90:	d8800015 	stw	r2,0(sp)
 4000a94:	01c04d84 	movi	r7,310
 4000a98:	018012c4 	movi	r6,75
 4000a9c:	01401b84 	movi	r5,110
 4000aa0:	010003c4 	movi	r4,15
 4000aa4:	400fb480 	call	400fb48 <LCD_DrawRect>
		vid_print_string(15,34,BLACK,&arial_22ptBitmaps,&arial_22ptDescriptors,"Glissando on");
 4000aa8:	00810074 	movhi	r2,1025
 4000aac:	1092cf04 	addi	r2,r2,19260
 4000ab0:	d8800115 	stw	r2,4(sp)
 4000ab4:	00810074 	movhi	r2,1025
 4000ab8:	10925584 	addi	r2,r2,18774
 4000abc:	d8800015 	stw	r2,0(sp)
 4000ac0:	01c10074 	movhi	r7,1025
 4000ac4:	39cd0e84 	addi	r7,r7,13370
 4000ac8:	000d883a 	mov	r6,zero
 4000acc:	01400884 	movi	r5,34
 4000ad0:	010003c4 	movi	r4,15
 4000ad4:	40011940 	call	4001194 <vid_print_string>
	}else{
		LCD_DrawRect(15,110,75,310,GREY);
		vid_print_string(15,34,BLACK,&arial_22ptBitmaps,&arial_22ptDescriptors,"Glissando off");
	}
}
 4000ad8:	00001306 	br	4000b28 <draw_glissando_on_off+0xc0>
void draw_glissando_on_off(alt_u8 on_off){
	if(on_off == 1){
		LCD_DrawRect(15,110,75,310,GREEN);
		vid_print_string(15,34,BLACK,&arial_22ptBitmaps,&arial_22ptDescriptors,"Glissando on");
	}else{
		LCD_DrawRect(15,110,75,310,GREY);
 4000adc:	00af6f54 	movui	r2,48573
 4000ae0:	d8800015 	stw	r2,0(sp)
 4000ae4:	01c04d84 	movi	r7,310
 4000ae8:	018012c4 	movi	r6,75
 4000aec:	01401b84 	movi	r5,110
 4000af0:	010003c4 	movi	r4,15
 4000af4:	400fb480 	call	400fb48 <LCD_DrawRect>
		vid_print_string(15,34,BLACK,&arial_22ptBitmaps,&arial_22ptDescriptors,"Glissando off");
 4000af8:	00810074 	movhi	r2,1025
 4000afc:	1092d304 	addi	r2,r2,19276
 4000b00:	d8800115 	stw	r2,4(sp)
 4000b04:	00810074 	movhi	r2,1025
 4000b08:	10925584 	addi	r2,r2,18774
 4000b0c:	d8800015 	stw	r2,0(sp)
 4000b10:	01c10074 	movhi	r7,1025
 4000b14:	39cd0e84 	addi	r7,r7,13370
 4000b18:	000d883a 	mov	r6,zero
 4000b1c:	01400884 	movi	r5,34
 4000b20:	010003c4 	movi	r4,15
 4000b24:	40011940 	call	4001194 <vid_print_string>
	}
}
 4000b28:	0001883a 	nop
 4000b2c:	e037883a 	mov	sp,fp
 4000b30:	dfc00117 	ldw	ra,4(sp)
 4000b34:	df000017 	ldw	fp,0(sp)
 4000b38:	dec00204 	addi	sp,sp,8
 4000b3c:	f800283a 	ret

04000b40 <draw_glissando_set>:
 * Function:
 * Purpose :
 * Return  : none
 *--------------------------------------------------*/
void draw_glissando_set(void)
{
 4000b40:	defffc04 	addi	sp,sp,-16
 4000b44:	dfc00315 	stw	ra,12(sp)
 4000b48:	df000215 	stw	fp,8(sp)
 4000b4c:	df000204 	addi	fp,sp,8
	vid_print_string(10,10,BLACK,&arial_22ptBitmaps,&arial_22ptDescriptors,"Delay");
 4000b50:	00810074 	movhi	r2,1025
 4000b54:	1092d704 	addi	r2,r2,19292
 4000b58:	d8800115 	stw	r2,4(sp)
 4000b5c:	00810074 	movhi	r2,1025
 4000b60:	10925584 	addi	r2,r2,18774
 4000b64:	d8800015 	stw	r2,0(sp)
 4000b68:	01c10074 	movhi	r7,1025
 4000b6c:	39cd0e84 	addi	r7,r7,13370
 4000b70:	000d883a 	mov	r6,zero
 4000b74:	01400284 	movi	r5,10
 4000b78:	01000284 	movi	r4,10
 4000b7c:	40011940 	call	4001194 <vid_print_string>
	LCD_DrawRect(40,195,100,310,GREY_SOFT);
 4000b80:	00b33314 	movui	r2,52428
 4000b84:	d8800015 	stw	r2,0(sp)
 4000b88:	01c04d84 	movi	r7,310
 4000b8c:	01801904 	movi	r6,100
 4000b90:	014030c4 	movi	r5,195
 4000b94:	01000a04 	movi	r4,40
 4000b98:	400fb480 	call	400fb48 <LCD_DrawRect>
	LCD_DrawRect(40,10,100,90,GREY);
 4000b9c:	00af6f54 	movui	r2,48573
 4000ba0:	d8800015 	stw	r2,0(sp)
 4000ba4:	01c01684 	movi	r7,90
 4000ba8:	01801904 	movi	r6,100
 4000bac:	01400284 	movi	r5,10
 4000bb0:	01000a04 	movi	r4,40
 4000bb4:	400fb480 	call	400fb48 <LCD_DrawRect>
	vid_print_string(260,45,BLACK,&arial_22ptBitmaps,&arial_22ptDescriptors,"_");
 4000bb8:	00810074 	movhi	r2,1025
 4000bbc:	1092c804 	addi	r2,r2,19232
 4000bc0:	d8800115 	stw	r2,4(sp)
 4000bc4:	00810074 	movhi	r2,1025
 4000bc8:	10925584 	addi	r2,r2,18774
 4000bcc:	d8800015 	stw	r2,0(sp)
 4000bd0:	01c10074 	movhi	r7,1025
 4000bd4:	39cd0e84 	addi	r7,r7,13370
 4000bd8:	000d883a 	mov	r6,zero
 4000bdc:	01400b44 	movi	r5,45
 4000be0:	01004104 	movi	r4,260
 4000be4:	40011940 	call	4001194 <vid_print_string>
	LCD_DrawRect(40,100,100,180,GREY);
 4000be8:	00af6f54 	movui	r2,48573
 4000bec:	d8800015 	stw	r2,0(sp)
 4000bf0:	01c02d04 	movi	r7,180
 4000bf4:	01801904 	movi	r6,100
 4000bf8:	01401904 	movi	r5,100
 4000bfc:	01000a04 	movi	r4,40
 4000c00:	400fb480 	call	400fb48 <LCD_DrawRect>
	vid_print_string(175,59,BLACK,&arial_22ptBitmaps,&arial_22ptDescriptors,"+");
 4000c04:	00810074 	movhi	r2,1025
 4000c08:	1092c904 	addi	r2,r2,19236
 4000c0c:	d8800115 	stw	r2,4(sp)
 4000c10:	00810074 	movhi	r2,1025
 4000c14:	10925584 	addi	r2,r2,18774
 4000c18:	d8800015 	stw	r2,0(sp)
 4000c1c:	01c10074 	movhi	r7,1025
 4000c20:	39cd0e84 	addi	r7,r7,13370
 4000c24:	000d883a 	mov	r6,zero
 4000c28:	01400ec4 	movi	r5,59
 4000c2c:	01002bc4 	movi	r4,175
 4000c30:	40011940 	call	4001194 <vid_print_string>

	LCD_DrawRect(175,10,235,110,GREY);
 4000c34:	00af6f54 	movui	r2,48573
 4000c38:	d8800015 	stw	r2,0(sp)
 4000c3c:	01c01b84 	movi	r7,110
 4000c40:	01803ac4 	movi	r6,235
 4000c44:	01400284 	movi	r5,10
 4000c48:	01002bc4 	movi	r4,175
 4000c4c:	400fb480 	call	400fb48 <LCD_DrawRect>
	vid_print_string(244,194,BLACK,&arial_22ptBitmaps,&arial_22ptDescriptors,"@");
 4000c50:	00810074 	movhi	r2,1025
 4000c54:	1092c704 	addi	r2,r2,19228
 4000c58:	d8800115 	stw	r2,4(sp)
 4000c5c:	00810074 	movhi	r2,1025
 4000c60:	10925584 	addi	r2,r2,18774
 4000c64:	d8800015 	stw	r2,0(sp)
 4000c68:	01c10074 	movhi	r7,1025
 4000c6c:	39cd0e84 	addi	r7,r7,13370
 4000c70:	000d883a 	mov	r6,zero
 4000c74:	01403084 	movi	r5,194
 4000c78:	01003d04 	movi	r4,244
 4000c7c:	40011940 	call	4001194 <vid_print_string>
}
 4000c80:	0001883a 	nop
 4000c84:	e037883a 	mov	sp,fp
 4000c88:	dfc00117 	ldw	ra,4(sp)
 4000c8c:	df000017 	ldw	fp,0(sp)
 4000c90:	dec00204 	addi	sp,sp,8
 4000c94:	f800283a 	ret

04000c98 <draw_update_glissando_delay>:

void draw_update_glissando_delay(alt_u8 gli_delay)
{
 4000c98:	defffb04 	addi	sp,sp,-20
 4000c9c:	dfc00415 	stw	ra,16(sp)
 4000ca0:	df000315 	stw	fp,12(sp)
 4000ca4:	df000304 	addi	fp,sp,12
 4000ca8:	2005883a 	mov	r2,r4
 4000cac:	e0bfff05 	stb	r2,-4(fp)
	alt_u8 i;
	LCD_DrawRect(40,195,100,310,GREY_SOFT);
 4000cb0:	00b33314 	movui	r2,52428
 4000cb4:	d8800015 	stw	r2,0(sp)
 4000cb8:	01c04d84 	movi	r7,310
 4000cbc:	01801904 	movi	r6,100
 4000cc0:	014030c4 	movi	r5,195
 4000cc4:	01000a04 	movi	r4,40
 4000cc8:	400fb480 	call	400fb48 <LCD_DrawRect>
	for(i = 0; i < gli_delay; i++){
 4000ccc:	e03ffe05 	stb	zero,-8(fp)
 4000cd0:	00001206 	br	4000d1c <draw_update_glissando_delay+0x84>
		LCD_DrawRect(45,(299-i*6-i*5),95,(299-i*6-i*5+6),GREEN);
 4000cd4:	e0bffe03 	ldbu	r2,-8(fp)
 4000cd8:	10bffd64 	muli	r2,r2,-11
 4000cdc:	10804ac4 	addi	r2,r2,299
 4000ce0:	10ffffcc 	andi	r3,r2,65535
 4000ce4:	e0bffe03 	ldbu	r2,-8(fp)
 4000ce8:	10bffd64 	muli	r2,r2,-11
 4000cec:	10804c44 	addi	r2,r2,305
 4000cf0:	113fffcc 	andi	r4,r2,65535
 4000cf4:	0081f804 	movi	r2,2016
 4000cf8:	d8800015 	stw	r2,0(sp)
 4000cfc:	200f883a 	mov	r7,r4
 4000d00:	018017c4 	movi	r6,95
 4000d04:	180b883a 	mov	r5,r3
 4000d08:	01000b44 	movi	r4,45
 4000d0c:	400fb480 	call	400fb48 <LCD_DrawRect>

void draw_update_glissando_delay(alt_u8 gli_delay)
{
	alt_u8 i;
	LCD_DrawRect(40,195,100,310,GREY_SOFT);
	for(i = 0; i < gli_delay; i++){
 4000d10:	e0bffe03 	ldbu	r2,-8(fp)
 4000d14:	10800044 	addi	r2,r2,1
 4000d18:	e0bffe05 	stb	r2,-8(fp)
 4000d1c:	e0fffe03 	ldbu	r3,-8(fp)
 4000d20:	e0bfff03 	ldbu	r2,-4(fp)
 4000d24:	18bfeb36 	bltu	r3,r2,4000cd4 <__reset+0xfa810cd4>
		LCD_DrawRect(45,(299-i*6-i*5),95,(299-i*6-i*5+6),GREEN);
	}
}
 4000d28:	0001883a 	nop
 4000d2c:	e037883a 	mov	sp,fp
 4000d30:	dfc00117 	ldw	ra,4(sp)
 4000d34:	df000017 	ldw	fp,0(sp)
 4000d38:	dec00204 	addi	sp,sp,8
 4000d3c:	f800283a 	ret

04000d40 <draw_penta_on_off>:

void draw_penta_on_off(alt_u8 on_off){
 4000d40:	defffb04 	addi	sp,sp,-20
 4000d44:	dfc00415 	stw	ra,16(sp)
 4000d48:	df000315 	stw	fp,12(sp)
 4000d4c:	df000304 	addi	fp,sp,12
 4000d50:	2005883a 	mov	r2,r4
 4000d54:	e0bfff05 	stb	r2,-4(fp)
	if(on_off == 4){
 4000d58:	e0bfff03 	ldbu	r2,-4(fp)
 4000d5c:	10800118 	cmpnei	r2,r2,4
 4000d60:	1000141e 	bne	r2,zero,4000db4 <draw_penta_on_off+0x74>
		LCD_DrawRect(110,100,170,310,GREEN);
 4000d64:	0081f804 	movi	r2,2016
 4000d68:	d8800015 	stw	r2,0(sp)
 4000d6c:	01c04d84 	movi	r7,310
 4000d70:	01802a84 	movi	r6,170
 4000d74:	01401904 	movi	r5,100
 4000d78:	01001b84 	movi	r4,110
 4000d7c:	400fb480 	call	400fb48 <LCD_DrawRect>
		vid_print_string(15,126,BLACK,&arial_22ptBitmaps,&arial_22ptDescriptors,"pentatonic on");
 4000d80:	00810074 	movhi	r2,1025
 4000d84:	1092d904 	addi	r2,r2,19300
 4000d88:	d8800115 	stw	r2,4(sp)
 4000d8c:	00810074 	movhi	r2,1025
 4000d90:	10925584 	addi	r2,r2,18774
 4000d94:	d8800015 	stw	r2,0(sp)
 4000d98:	01c10074 	movhi	r7,1025
 4000d9c:	39cd0e84 	addi	r7,r7,13370
 4000da0:	000d883a 	mov	r6,zero
 4000da4:	01401f84 	movi	r5,126
 4000da8:	010003c4 	movi	r4,15
 4000dac:	40011940 	call	4001194 <vid_print_string>
	}else{
		LCD_DrawRect(110,100,170,310,GREY);
		vid_print_string(15,126,BLACK,&arial_22ptBitmaps,&arial_22ptDescriptors,"pentatonic off");
	}
}
 4000db0:	00001306 	br	4000e00 <draw_penta_on_off+0xc0>
void draw_penta_on_off(alt_u8 on_off){
	if(on_off == 4){
		LCD_DrawRect(110,100,170,310,GREEN);
		vid_print_string(15,126,BLACK,&arial_22ptBitmaps,&arial_22ptDescriptors,"pentatonic on");
	}else{
		LCD_DrawRect(110,100,170,310,GREY);
 4000db4:	00af6f54 	movui	r2,48573
 4000db8:	d8800015 	stw	r2,0(sp)
 4000dbc:	01c04d84 	movi	r7,310
 4000dc0:	01802a84 	movi	r6,170
 4000dc4:	01401904 	movi	r5,100
 4000dc8:	01001b84 	movi	r4,110
 4000dcc:	400fb480 	call	400fb48 <LCD_DrawRect>
		vid_print_string(15,126,BLACK,&arial_22ptBitmaps,&arial_22ptDescriptors,"pentatonic off");
 4000dd0:	00810074 	movhi	r2,1025
 4000dd4:	1092dd04 	addi	r2,r2,19316
 4000dd8:	d8800115 	stw	r2,4(sp)
 4000ddc:	00810074 	movhi	r2,1025
 4000de0:	10925584 	addi	r2,r2,18774
 4000de4:	d8800015 	stw	r2,0(sp)
 4000de8:	01c10074 	movhi	r7,1025
 4000dec:	39cd0e84 	addi	r7,r7,13370
 4000df0:	000d883a 	mov	r6,zero
 4000df4:	01401f84 	movi	r5,126
 4000df8:	010003c4 	movi	r4,15
 4000dfc:	40011940 	call	4001194 <vid_print_string>
	}
}
 4000e00:	0001883a 	nop
 4000e04:	e037883a 	mov	sp,fp
 4000e08:	dfc00117 	ldw	ra,4(sp)
 4000e0c:	df000017 	ldw	fp,0(sp)
 4000e10:	dec00204 	addi	sp,sp,8
 4000e14:	f800283a 	ret

04000e18 <draw_display_ton>:
 * Function:
 * Purpose :
 * Return  : none
 *--------------------------------------------------*/
void draw_display_ton(void)
{
 4000e18:	defffc04 	addi	sp,sp,-16
 4000e1c:	dfc00315 	stw	ra,12(sp)
 4000e20:	df000215 	stw	fp,8(sp)
 4000e24:	df000204 	addi	fp,sp,8
	LCD_DrawRect(153,10,155,310,BLACK);
 4000e28:	d8000015 	stw	zero,0(sp)
 4000e2c:	01c04d84 	movi	r7,310
 4000e30:	018026c4 	movi	r6,155
 4000e34:	01400284 	movi	r5,10
 4000e38:	01002644 	movi	r4,153
 4000e3c:	400fb480 	call	400fb48 <LCD_DrawRect>
	LCD_DrawRect(60,159,155,161,BLACK);
 4000e40:	d8000015 	stw	zero,0(sp)
 4000e44:	01c02844 	movi	r7,161
 4000e48:	018026c4 	movi	r6,155
 4000e4c:	014027c4 	movi	r5,159
 4000e50:	01000f04 	movi	r4,60
 4000e54:	400fb480 	call	400fb48 <LCD_DrawRect>
	LCD_DrawRect(10,130,60,180,WHITE);
 4000e58:	00bfffd4 	movui	r2,65535
 4000e5c:	d8800015 	stw	r2,0(sp)
 4000e60:	01c02d04 	movi	r7,180
 4000e64:	01800f04 	movi	r6,60
 4000e68:	01402084 	movi	r5,130
 4000e6c:	01000284 	movi	r4,10
 4000e70:	400fb480 	call	400fb48 <LCD_DrawRect>
	LCD_DrawRect(170,10,230,110,GREY);
 4000e74:	00af6f54 	movui	r2,48573
 4000e78:	d8800015 	stw	r2,0(sp)
 4000e7c:	01c01b84 	movi	r7,110
 4000e80:	01803984 	movi	r6,230
 4000e84:	01400284 	movi	r5,10
 4000e88:	01002a84 	movi	r4,170
 4000e8c:	400fb480 	call	400fb48 <LCD_DrawRect>
	vid_print_string(244,189,BLACK,&arial_22ptBitmaps,&arial_22ptDescriptors,"@");
 4000e90:	00810074 	movhi	r2,1025
 4000e94:	1092c704 	addi	r2,r2,19228
 4000e98:	d8800115 	stw	r2,4(sp)
 4000e9c:	00810074 	movhi	r2,1025
 4000ea0:	10925584 	addi	r2,r2,18774
 4000ea4:	d8800015 	stw	r2,0(sp)
 4000ea8:	01c10074 	movhi	r7,1025
 4000eac:	39cd0e84 	addi	r7,r7,13370
 4000eb0:	000d883a 	mov	r6,zero
 4000eb4:	01402f44 	movi	r5,189
 4000eb8:	01003d04 	movi	r4,244
 4000ebc:	40011940 	call	4001194 <vid_print_string>
}
 4000ec0:	0001883a 	nop
 4000ec4:	e037883a 	mov	sp,fp
 4000ec8:	dfc00117 	ldw	ra,4(sp)
 4000ecc:	df000017 	ldw	fp,0(sp)
 4000ed0:	dec00204 	addi	sp,sp,8
 4000ed4:	f800283a 	ret

04000ed8 <draw_display_ton_update>:
void draw_display_ton_update(alt_u8 penta_on_off)
{
 4000ed8:	deffaf04 	addi	sp,sp,-324
 4000edc:	dfc05015 	stw	ra,320(sp)
 4000ee0:	df004f15 	stw	fp,316(sp)
 4000ee4:	df004f04 	addi	fp,sp,316
 4000ee8:	2005883a 	mov	r2,r4
 4000eec:	e0bfff05 	stb	r2,-4(fp)
	alt_u32 tmp = read_freq_pitch();
 4000ef0:	40103f40 	call	40103f4 <read_freq_pitch>
 4000ef4:	e0bfb515 	stw	r2,-300(fp)
	alt_32 index = (alt_32)((tmp & 0xFC000000)>>26);
 4000ef8:	e0bfb517 	ldw	r2,-300(fp)
 4000efc:	1004d6ba 	srli	r2,r2,26
 4000f00:	e0bfb615 	stw	r2,-296(fp)
	alt_16 pixel_accuracy=0;
 4000f04:	e03fb70d 	sth	zero,-292(fp)
	char penta_string[21][4] = {{"C#3\0"},{"D#3\0"},{"F#3\0"},{"G#3\0"},{"A#3\0"},{"C#4\0"},{"D#4\0"},{"F#4\0"},{"G#4\0"},{"A#4\0"},{"C#5\0"},{"D#5\0"},{"F#5\0"},{"G#5\0"},{"A#5\0"},{"C#6\0"},{"D#6\0"},{"F#6\0"},{"G#6\0"},{"A#6\0"},{"C#7\0"}};
 4000f08:	00810074 	movhi	r2,1025
 4000f0c:	1092e0c4 	addi	r2,r2,19331
 4000f10:	e0ffb784 	addi	r3,fp,-290
 4000f14:	1009883a 	mov	r4,r2
 4000f18:	00801504 	movi	r2,84
 4000f1c:	100d883a 	mov	r6,r2
 4000f20:	200b883a 	mov	r5,r4
 4000f24:	1809883a 	mov	r4,r3
 4000f28:	40020140 	call	4002014 <memcpy>
	char ton_string[49][4] = {{"C3 \0"},{"C#3\0"},{"D3 \0"},{"D#3\0"},{"E3 \0"},{"F3 \0"},{"F#3\0"},{"G3 \0"},{"G#3\0"},{"A3 \0"},{"A#3\0"},{"B3 \0"},{"C4 \0"},{"C#4\0"},{"D4 \0"},{"D#4\0"},{"E4 \0"},{"F4 \0"},{"F#4\0"},{"G4 \0"},{"G#4\0"},{"A4 \0"},{"A#4\0"},{"B4 \0"},{"C5 \0"},{"C#5\0"},{"D5 \0"},{"D#5\0"},{"E5 \0"},{"F5 \0"},{"F#5\0"},{"G5 \0"},{"G#5\0"},{"A5 \0"},{"A#5\0"},{"B5 \0"},{"C6 \0"},{"C#6\0"},{"D6 \0"},{"D#6\0"},{"E6 \0"},{"F6 \0"},{"F#6\0"},{"G6 \0"},{"G#6\0"},{"A6 \0"},{"A#6\0"},{"B6 \0"},{"C7 \0"}};
 4000f2c:	00810074 	movhi	r2,1025
 4000f30:	1092f5c4 	addi	r2,r2,19415
 4000f34:	e0ffcc84 	addi	r3,fp,-206
 4000f38:	1009883a 	mov	r4,r2
 4000f3c:	00803104 	movi	r2,196
 4000f40:	100d883a 	mov	r6,r2
 4000f44:	200b883a 	mov	r5,r4
 4000f48:	1809883a 	mov	r4,r3
 4000f4c:	40020140 	call	4002014 <memcpy>
	char display_string[4];
	LCD_DrawRect(10,90,60,200,WHITE);
 4000f50:	00bfffd4 	movui	r2,65535
 4000f54:	d8800015 	stw	r2,0(sp)
 4000f58:	01c03204 	movi	r7,200
 4000f5c:	01800f04 	movi	r6,60
 4000f60:	01401684 	movi	r5,90
 4000f64:	01000284 	movi	r4,10
 4000f68:	400fb480 	call	400fb48 <LCD_DrawRect>

	if (penta_on_off == 1 ){
 4000f6c:	e0bfff03 	ldbu	r2,-4(fp)
 4000f70:	10800058 	cmpnei	r2,r2,1
 4000f74:	10002b1e 	bne	r2,zero,4001024 <draw_display_ton_update+0x14c>
		for(int i = 0; i < 4;i++){
 4000f78:	e03fb315 	stw	zero,-308(fp)
 4000f7c:	00001006 	br	4000fc0 <draw_display_ton_update+0xe8>
			display_string[i] = penta_string[index][i];
 4000f80:	e0bfb617 	ldw	r2,-296(fp)
 4000f84:	1085883a 	add	r2,r2,r2
 4000f88:	1085883a 	add	r2,r2,r2
 4000f8c:	e13fb304 	addi	r4,fp,-308
 4000f90:	2087883a 	add	r3,r4,r2
 4000f94:	e0bfb317 	ldw	r2,-308(fp)
 4000f98:	1885883a 	add	r2,r3,r2
 4000f9c:	10800484 	addi	r2,r2,18
 4000fa0:	10c00003 	ldbu	r3,0(r2)
 4000fa4:	e13ffd84 	addi	r4,fp,-10
 4000fa8:	e0bfb317 	ldw	r2,-308(fp)
 4000fac:	2085883a 	add	r2,r4,r2
 4000fb0:	10c00005 	stb	r3,0(r2)
	char ton_string[49][4] = {{"C3 \0"},{"C#3\0"},{"D3 \0"},{"D#3\0"},{"E3 \0"},{"F3 \0"},{"F#3\0"},{"G3 \0"},{"G#3\0"},{"A3 \0"},{"A#3\0"},{"B3 \0"},{"C4 \0"},{"C#4\0"},{"D4 \0"},{"D#4\0"},{"E4 \0"},{"F4 \0"},{"F#4\0"},{"G4 \0"},{"G#4\0"},{"A4 \0"},{"A#4\0"},{"B4 \0"},{"C5 \0"},{"C#5\0"},{"D5 \0"},{"D#5\0"},{"E5 \0"},{"F5 \0"},{"F#5\0"},{"G5 \0"},{"G#5\0"},{"A5 \0"},{"A#5\0"},{"B5 \0"},{"C6 \0"},{"C#6\0"},{"D6 \0"},{"D#6\0"},{"E6 \0"},{"F6 \0"},{"F#6\0"},{"G6 \0"},{"G#6\0"},{"A6 \0"},{"A#6\0"},{"B6 \0"},{"C7 \0"}};
	char display_string[4];
	LCD_DrawRect(10,90,60,200,WHITE);

	if (penta_on_off == 1 ){
		for(int i = 0; i < 4;i++){
 4000fb4:	e0bfb317 	ldw	r2,-308(fp)
 4000fb8:	10800044 	addi	r2,r2,1
 4000fbc:	e0bfb315 	stw	r2,-308(fp)
 4000fc0:	e0bfb317 	ldw	r2,-308(fp)
 4000fc4:	10800110 	cmplti	r2,r2,4
 4000fc8:	103fed1e 	bne	r2,zero,4000f80 <__reset+0xfa810f80>
			display_string[i] = penta_string[index][i];
		}
		vid_print_string(160 - get_string_width(penta_string[index]),35,BLACK,&arial_22ptBitmaps,&arial_22ptDescriptors,&display_string);
 4000fcc:	e0ffb784 	addi	r3,fp,-290
 4000fd0:	e0bfb617 	ldw	r2,-296(fp)
 4000fd4:	1085883a 	add	r2,r2,r2
 4000fd8:	1085883a 	add	r2,r2,r2
 4000fdc:	1885883a 	add	r2,r3,r2
 4000fe0:	1009883a 	mov	r4,r2
 4000fe4:	40012d80 	call	40012d8 <get_string_width>
 4000fe8:	1007883a 	mov	r3,r2
 4000fec:	00802804 	movi	r2,160
 4000ff0:	10c7c83a 	sub	r3,r2,r3
 4000ff4:	e0bffd84 	addi	r2,fp,-10
 4000ff8:	d8800115 	stw	r2,4(sp)
 4000ffc:	00810074 	movhi	r2,1025
 4001000:	10925584 	addi	r2,r2,18774
 4001004:	d8800015 	stw	r2,0(sp)
 4001008:	01c10074 	movhi	r7,1025
 400100c:	39cd0e84 	addi	r7,r7,13370
 4001010:	000d883a 	mov	r6,zero
 4001014:	014008c4 	movi	r5,35
 4001018:	1809883a 	mov	r4,r3
 400101c:	40011940 	call	4001194 <vid_print_string>
 4001020:	00002a06 	br	40010cc <draw_display_ton_update+0x1f4>
	}else{
		for(int i = 0; i < 4;i++){
 4001024:	e03fb415 	stw	zero,-304(fp)
 4001028:	00001006 	br	400106c <draw_display_ton_update+0x194>
				display_string[i] = ton_string[index][i];
 400102c:	e0bfb617 	ldw	r2,-296(fp)
 4001030:	1085883a 	add	r2,r2,r2
 4001034:	1085883a 	add	r2,r2,r2
 4001038:	e13fb304 	addi	r4,fp,-308
 400103c:	2087883a 	add	r3,r4,r2
 4001040:	e0bfb417 	ldw	r2,-304(fp)
 4001044:	1885883a 	add	r2,r3,r2
 4001048:	10801984 	addi	r2,r2,102
 400104c:	10c00003 	ldbu	r3,0(r2)
 4001050:	e13ffd84 	addi	r4,fp,-10
 4001054:	e0bfb417 	ldw	r2,-304(fp)
 4001058:	2085883a 	add	r2,r4,r2
 400105c:	10c00005 	stb	r3,0(r2)
		for(int i = 0; i < 4;i++){
			display_string[i] = penta_string[index][i];
		}
		vid_print_string(160 - get_string_width(penta_string[index]),35,BLACK,&arial_22ptBitmaps,&arial_22ptDescriptors,&display_string);
	}else{
		for(int i = 0; i < 4;i++){
 4001060:	e0bfb417 	ldw	r2,-304(fp)
 4001064:	10800044 	addi	r2,r2,1
 4001068:	e0bfb415 	stw	r2,-304(fp)
 400106c:	e0bfb417 	ldw	r2,-304(fp)
 4001070:	10800110 	cmplti	r2,r2,4
 4001074:	103fed1e 	bne	r2,zero,400102c <__reset+0xfa81102c>
				display_string[i] = ton_string[index][i];
			}
		vid_print_string(160 - get_string_width(ton_string[index]),35,BLACK,&arial_22ptBitmaps,&arial_22ptDescriptors,&display_string);
 4001078:	e0ffcc84 	addi	r3,fp,-206
 400107c:	e0bfb617 	ldw	r2,-296(fp)
 4001080:	1085883a 	add	r2,r2,r2
 4001084:	1085883a 	add	r2,r2,r2
 4001088:	1885883a 	add	r2,r3,r2
 400108c:	1009883a 	mov	r4,r2
 4001090:	40012d80 	call	40012d8 <get_string_width>
 4001094:	1007883a 	mov	r3,r2
 4001098:	00802804 	movi	r2,160
 400109c:	10c7c83a 	sub	r3,r2,r3
 40010a0:	e0bffd84 	addi	r2,fp,-10
 40010a4:	d8800115 	stw	r2,4(sp)
 40010a8:	00810074 	movhi	r2,1025
 40010ac:	10925584 	addi	r2,r2,18774
 40010b0:	d8800015 	stw	r2,0(sp)
 40010b4:	01c10074 	movhi	r7,1025
 40010b8:	39cd0e84 	addi	r7,r7,13370
 40010bc:	000d883a 	mov	r6,zero
 40010c0:	014008c4 	movi	r5,35
 40010c4:	1809883a 	mov	r4,r3
 40010c8:	40011940 	call	4001194 <vid_print_string>
	}
	pixel_accuracy = get_pixel_pitch_accuracy(penta_on_off,tmp);
 40010cc:	e0bfff03 	ldbu	r2,-4(fp)
 40010d0:	e17fb517 	ldw	r5,-300(fp)
 40010d4:	1009883a 	mov	r4,r2
 40010d8:	40104440 	call	4010444 <get_pixel_pitch_accuracy>
 40010dc:	e0bfb70d 	sth	r2,-292(fp)
	//clear cursor
	LCD_DrawRect(133,(160 -pixel_accuracy_old),152,(160 - pixel_accuracy_old+2),WHITE);
 40010e0:	d0a0140b 	ldhu	r2,-32688(gp)
 40010e4:	1007883a 	mov	r3,r2
 40010e8:	00802804 	movi	r2,160
 40010ec:	10c5c83a 	sub	r2,r2,r3
 40010f0:	10ffffcc 	andi	r3,r2,65535
 40010f4:	d0a0140b 	ldhu	r2,-32688(gp)
 40010f8:	1009883a 	mov	r4,r2
 40010fc:	00802884 	movi	r2,162
 4001100:	1105c83a 	sub	r2,r2,r4
 4001104:	113fffcc 	andi	r4,r2,65535
 4001108:	00bfffd4 	movui	r2,65535
 400110c:	d8800015 	stw	r2,0(sp)
 4001110:	200f883a 	mov	r7,r4
 4001114:	01802604 	movi	r6,152
 4001118:	180b883a 	mov	r5,r3
 400111c:	01002144 	movi	r4,133
 4001120:	400fb480 	call	400fb48 <LCD_DrawRect>

	LCD_DrawRect(60,159,155,161,BLACK);
 4001124:	d8000015 	stw	zero,0(sp)
 4001128:	01c02844 	movi	r7,161
 400112c:	018026c4 	movi	r6,155
 4001130:	014027c4 	movi	r5,159
 4001134:	01000f04 	movi	r4,60
 4001138:	400fb480 	call	400fb48 <LCD_DrawRect>
	//draw cursor
	LCD_DrawRect(133,(160 - pixel_accuracy),152,(160 - pixel_accuracy+2),BLACK);
 400113c:	e0bfb70b 	ldhu	r2,-292(fp)
 4001140:	00c02804 	movi	r3,160
 4001144:	1885c83a 	sub	r2,r3,r2
 4001148:	113fffcc 	andi	r4,r2,65535
 400114c:	e0bfb70b 	ldhu	r2,-292(fp)
 4001150:	00c02884 	movi	r3,162
 4001154:	1885c83a 	sub	r2,r3,r2
 4001158:	10bfffcc 	andi	r2,r2,65535
 400115c:	d8000015 	stw	zero,0(sp)
 4001160:	100f883a 	mov	r7,r2
 4001164:	01802604 	movi	r6,152
 4001168:	200b883a 	mov	r5,r4
 400116c:	01002144 	movi	r4,133
 4001170:	400fb480 	call	400fb48 <LCD_DrawRect>

	pixel_accuracy_old = pixel_accuracy;
 4001174:	e0bfb70b 	ldhu	r2,-292(fp)
 4001178:	d0a0140d 	sth	r2,-32688(gp)
}
 400117c:	0001883a 	nop
 4001180:	e037883a 	mov	sp,fp
 4001184:	dfc00117 	ldw	ra,4(sp)
 4001188:	df000017 	ldw	fp,0(sp)
 400118c:	dec00204 	addi	sp,sp,8
 4001190:	f800283a 	ret

04001194 <vid_print_string>:
*           using the specified font and color.
*           Calls vid_print_char
*
******************************************************************/
int vid_print_string(int horiz_offset, int vert_offset, int color, const alt_u8 *font, const alt_u16 (*font_descriptor)[2], char string[])
{
 4001194:	defff604 	addi	sp,sp,-40
 4001198:	dfc00915 	stw	ra,36(sp)
 400119c:	df000815 	stw	fp,32(sp)
 40011a0:	df000804 	addi	fp,sp,32
 40011a4:	e13ffc15 	stw	r4,-16(fp)
 40011a8:	e17ffd15 	stw	r5,-12(fp)
 40011ac:	e1bffe15 	stw	r6,-8(fp)
 40011b0:	e1ffff15 	stw	r7,-4(fp)
  int i = 0;
 40011b4:	e03ffa15 	stw	zero,-24(fp)
  //int original_horiz_offset;

  //original_horiz_offset = horiz_offset;

  // Print until we hit the '\0' char.
  while (string[i]) {
 40011b8:	00003906 	br	40012a0 <vid_print_string+0x10c>
    //Handle newline char here.
    if (string[i] == ' ') {
 40011bc:	e0bffa17 	ldw	r2,-24(fp)
 40011c0:	e0c00317 	ldw	r3,12(fp)
 40011c4:	1885883a 	add	r2,r3,r2
 40011c8:	10800003 	ldbu	r2,0(r2)
 40011cc:	10803fcc 	andi	r2,r2,255
 40011d0:	1080201c 	xori	r2,r2,128
 40011d4:	10bfe004 	addi	r2,r2,-128
 40011d8:	10800818 	cmpnei	r2,r2,32
 40011dc:	1000071e 	bne	r2,zero,40011fc <vid_print_string+0x68>
      horiz_offset += 10 ;
 40011e0:	e0bffc17 	ldw	r2,-16(fp)
 40011e4:	10800284 	addi	r2,r2,10
 40011e8:	e0bffc15 	stw	r2,-16(fp)
      i++;
 40011ec:	e0bffa17 	ldw	r2,-24(fp)
 40011f0:	10800044 	addi	r2,r2,1
 40011f4:	e0bffa15 	stw	r2,-24(fp)
      continue;
 40011f8:	00002906 	br	40012a0 <vid_print_string+0x10c>
    }
    // Lay down that character and increment our offsets.
    temp_char = (string[i] - 0x21);
 40011fc:	e0bffa17 	ldw	r2,-24(fp)
 4001200:	e0c00317 	ldw	r3,12(fp)
 4001204:	1885883a 	add	r2,r3,r2
 4001208:	10800003 	ldbu	r2,0(r2)
 400120c:	10803fcc 	andi	r2,r2,255
 4001210:	1080201c 	xori	r2,r2,128
 4001214:	10bfe004 	addi	r2,r2,-128
 4001218:	10bff7c4 	addi	r2,r2,-33
 400121c:	e0bffb0d 	sth	r2,-20(fp)
    bit_num_char = *(*(font_descriptor + temp_char));
 4001220:	e0bffb0b 	ldhu	r2,-20(fp)
 4001224:	1085883a 	add	r2,r2,r2
 4001228:	1085883a 	add	r2,r2,r2
 400122c:	1007883a 	mov	r3,r2
 4001230:	e0800217 	ldw	r2,8(fp)
 4001234:	10c5883a 	add	r2,r2,r3
 4001238:	1080000b 	ldhu	r2,0(r2)
 400123c:	e0bffb8d 	sth	r2,-18(fp)
    vid_print_char (horiz_offset, vert_offset, color, string[i], font, font_descriptor);
 4001240:	e0bffa17 	ldw	r2,-24(fp)
 4001244:	e0c00317 	ldw	r3,12(fp)
 4001248:	1885883a 	add	r2,r3,r2
 400124c:	10800003 	ldbu	r2,0(r2)
 4001250:	10c03fcc 	andi	r3,r2,255
 4001254:	18c0201c 	xori	r3,r3,128
 4001258:	18ffe004 	addi	r3,r3,-128
 400125c:	e0800217 	ldw	r2,8(fp)
 4001260:	d8800115 	stw	r2,4(sp)
 4001264:	e0bfff17 	ldw	r2,-4(fp)
 4001268:	d8800015 	stw	r2,0(sp)
 400126c:	180f883a 	mov	r7,r3
 4001270:	e1bffe17 	ldw	r6,-8(fp)
 4001274:	e17ffd17 	ldw	r5,-12(fp)
 4001278:	e13ffc17 	ldw	r4,-16(fp)
 400127c:	40013a00 	call	40013a0 <vid_print_char>
    horiz_offset += 4 + (int)bit_num_char;
 4001280:	e0bffb8b 	ldhu	r2,-18(fp)
 4001284:	10800104 	addi	r2,r2,4
 4001288:	e0fffc17 	ldw	r3,-16(fp)
 400128c:	1885883a 	add	r2,r3,r2
 4001290:	e0bffc15 	stw	r2,-16(fp)
    i++;
 4001294:	e0bffa17 	ldw	r2,-24(fp)
 4001298:	10800044 	addi	r2,r2,1
 400129c:	e0bffa15 	stw	r2,-24(fp)
  //int original_horiz_offset;

  //original_horiz_offset = horiz_offset;

  // Print until we hit the '\0' char.
  while (string[i]) {
 40012a0:	e0bffa17 	ldw	r2,-24(fp)
 40012a4:	e0c00317 	ldw	r3,12(fp)
 40012a8:	1885883a 	add	r2,r3,r2
 40012ac:	10800003 	ldbu	r2,0(r2)
 40012b0:	10803fcc 	andi	r2,r2,255
 40012b4:	1080201c 	xori	r2,r2,128
 40012b8:	10bfe004 	addi	r2,r2,-128
 40012bc:	103fbf1e 	bne	r2,zero,40011bc <__reset+0xfa8111bc>
    vid_print_char (horiz_offset, vert_offset, color, string[i], font, font_descriptor);
    horiz_offset += 4 + (int)bit_num_char;
    i++;

  }
  return (0);
 40012c0:	0005883a 	mov	r2,zero
}
 40012c4:	e037883a 	mov	sp,fp
 40012c8:	dfc00117 	ldw	ra,4(sp)
 40012cc:	df000017 	ldw	fp,0(sp)
 40012d0:	dec00204 	addi	sp,sp,8
 40012d4:	f800283a 	ret

040012d8 <get_string_width>:
*  Purpose: returns the pixel width of the given string
*
******************************************************************/

int get_string_width(char string[])
{
 40012d8:	defffb04 	addi	sp,sp,-20
 40012dc:	dfc00415 	stw	ra,16(sp)
 40012e0:	df000315 	stw	fp,12(sp)
 40012e4:	df000304 	addi	fp,sp,12
 40012e8:	e13fff15 	stw	r4,-4(fp)
	int width = 0;
 40012ec:	e03ffd15 	stw	zero,-12(fp)

	width = 4*(strlen(string)-1);
 40012f0:	e13fff17 	ldw	r4,-4(fp)
 40012f4:	400229c0 	call	400229c <strlen>
 40012f8:	1007883a 	mov	r3,r2
 40012fc:	00900034 	movhi	r2,16384
 4001300:	10bfffc4 	addi	r2,r2,-1
 4001304:	1885883a 	add	r2,r3,r2
 4001308:	1085883a 	add	r2,r2,r2
 400130c:	1085883a 	add	r2,r2,r2
 4001310:	e0bffd15 	stw	r2,-12(fp)
	for(int i = 0; i < strlen(string);i++){
 4001314:	e03ffe15 	stw	zero,-8(fp)
 4001318:	00001506 	br	4001370 <get_string_width+0x98>
		width += arial_22ptDescriptors[string[i]-0x21][0];
 400131c:	e0bffe17 	ldw	r2,-8(fp)
 4001320:	e0ffff17 	ldw	r3,-4(fp)
 4001324:	1885883a 	add	r2,r3,r2
 4001328:	10800003 	ldbu	r2,0(r2)
 400132c:	10803fcc 	andi	r2,r2,255
 4001330:	1080201c 	xori	r2,r2,128
 4001334:	10bfe004 	addi	r2,r2,-128
 4001338:	10fff7c4 	addi	r3,r2,-33
 400133c:	00810074 	movhi	r2,1025
 4001340:	10925584 	addi	r2,r2,18774
 4001344:	18c7883a 	add	r3,r3,r3
 4001348:	18c7883a 	add	r3,r3,r3
 400134c:	10c5883a 	add	r2,r2,r3
 4001350:	1080000b 	ldhu	r2,0(r2)
 4001354:	10bfffcc 	andi	r2,r2,65535
 4001358:	e0fffd17 	ldw	r3,-12(fp)
 400135c:	1885883a 	add	r2,r3,r2
 4001360:	e0bffd15 	stw	r2,-12(fp)
int get_string_width(char string[])
{
	int width = 0;

	width = 4*(strlen(string)-1);
	for(int i = 0; i < strlen(string);i++){
 4001364:	e0bffe17 	ldw	r2,-8(fp)
 4001368:	10800044 	addi	r2,r2,1
 400136c:	e0bffe15 	stw	r2,-8(fp)
 4001370:	e13fff17 	ldw	r4,-4(fp)
 4001374:	400229c0 	call	400229c <strlen>
 4001378:	1007883a 	mov	r3,r2
 400137c:	e0bffe17 	ldw	r2,-8(fp)
 4001380:	10ffe636 	bltu	r2,r3,400131c <__reset+0xfa81131c>
		width += arial_22ptDescriptors[string[i]-0x21][0];
	}
	return (width >> 1);
 4001384:	e0bffd17 	ldw	r2,-12(fp)
 4001388:	1005d07a 	srai	r2,r2,1
}
 400138c:	e037883a 	mov	sp,fp
 4001390:	dfc00117 	ldw	ra,4(sp)
 4001394:	df000017 	ldw	fp,0(sp)
 4001398:	dec00204 	addi	sp,sp,8
 400139c:	f800283a 	ret

040013a0 <vid_print_char>:
*           screen using the specified font and color.
*
******************************************************************/

int vid_print_char (int horiz_offset, int vert_offset, int color, char character, const alt_u8 *font, const alt_u16 (*font_descriptor)[2])
{
 40013a0:	defff204 	addi	sp,sp,-56
 40013a4:	dfc00d15 	stw	ra,52(sp)
 40013a8:	df000c15 	stw	fp,48(sp)
 40013ac:	df000c04 	addi	fp,sp,48
 40013b0:	e13ffc15 	stw	r4,-16(fp)
 40013b4:	e17ffd15 	stw	r5,-12(fp)
 40013b8:	e1bffe15 	stw	r6,-8(fp)
 40013bc:	3805883a 	mov	r2,r7
 40013c0:	e0bfff05 	stb	r2,-4(fp)
  alt_u16 row_offset;
  alt_u16 bit_num_char;
  alt_u16 bit_num_char_temp;
  alt_u8 byte_offset;
  // Convert the ASCII value to an array offset
  temp_char = (character - 0x21);
 40013c4:	e0bfff07 	ldb	r2,-4(fp)
 40013c8:	10bff7c4 	addi	r2,r2,-33
 40013cc:	e0bff915 	stw	r2,-28(fp)
  row_offset = *(*(font_descriptor + temp_char)+ 1);
 40013d0:	e0bff917 	ldw	r2,-28(fp)
 40013d4:	1085883a 	add	r2,r2,r2
 40013d8:	1085883a 	add	r2,r2,r2
 40013dc:	10800084 	addi	r2,r2,2
 40013e0:	e0c00317 	ldw	r3,12(fp)
 40013e4:	1885883a 	add	r2,r3,r2
 40013e8:	1080000b 	ldhu	r2,0(r2)
 40013ec:	e0bffa0d 	sth	r2,-24(fp)
  bit_num_char = *(*(font_descriptor + temp_char));
 40013f0:	e0bff917 	ldw	r2,-28(fp)
 40013f4:	1085883a 	add	r2,r2,r2
 40013f8:	1085883a 	add	r2,r2,r2
 40013fc:	1007883a 	mov	r3,r2
 4001400:	e0800317 	ldw	r2,12(fp)
 4001404:	10c5883a 	add	r2,r2,r3
 4001408:	1080000b 	ldhu	r2,0(r2)
 400140c:	e0bffa8d 	sth	r2,-22(fp)
  if(bit_num_char <=8){
 4001410:	e0bffa8b 	ldhu	r2,-22(fp)
 4001414:	10800268 	cmpgeui	r2,r2,9
 4001418:	1000031e 	bne	r2,zero,4001428 <vid_print_char+0x88>
	  byte_offset = 1;
 400141c:	00800044 	movi	r2,1
 4001420:	e0bff885 	stb	r2,-30(fp)
 4001424:	00000e06 	br	4001460 <vid_print_char+0xc0>
  }else if(bit_num_char <= 16){
 4001428:	e0bffa8b 	ldhu	r2,-22(fp)
 400142c:	10800468 	cmpgeui	r2,r2,17
 4001430:	1000031e 	bne	r2,zero,4001440 <vid_print_char+0xa0>
	  byte_offset = 2;
 4001434:	00800084 	movi	r2,2
 4001438:	e0bff885 	stb	r2,-30(fp)
 400143c:	00000806 	br	4001460 <vid_print_char+0xc0>
  }else if(bit_num_char <=24){
 4001440:	e0bffa8b 	ldhu	r2,-22(fp)
 4001444:	10800668 	cmpgeui	r2,r2,25
 4001448:	1000031e 	bne	r2,zero,4001458 <vid_print_char+0xb8>
	  byte_offset = 3;
 400144c:	008000c4 	movi	r2,3
 4001450:	e0bff885 	stb	r2,-30(fp)
 4001454:	00000206 	br	4001460 <vid_print_char+0xc0>
  }else{
	  byte_offset = 4;
 4001458:	00800104 	movi	r2,4
 400145c:	e0bff885 	stb	r2,-30(fp)
  }

  //Each character is 32 pixels wide and 31 tall.
  for(i = 0; i < 28; i++) { //31 arial
 4001460:	e03ff415 	stw	zero,-48(fp)
 4001464:	00004106 	br	400156c <vid_print_char+0x1cc>
      char_row = font + (row_offset) + i*byte_offset;//i*4 arial
 4001468:	e0bffa0b 	ldhu	r2,-24(fp)
 400146c:	e13ff883 	ldbu	r4,-30(fp)
 4001470:	e0fff417 	ldw	r3,-48(fp)
 4001474:	20c7383a 	mul	r3,r4,r3
 4001478:	10c5883a 	add	r2,r2,r3
 400147c:	e0c00217 	ldw	r3,8(fp)
 4001480:	1885883a 	add	r2,r3,r2
 4001484:	e0bffb15 	stw	r2,-20(fp)
      bit_num_char_temp = bit_num_char;
 4001488:	e0bffa8b 	ldhu	r2,-22(fp)
 400148c:	e0bff80d 	sth	r2,-32(fp)
    for(k = 0; k < byte_offset; k++){//4 arila
 4001490:	e03ff615 	stw	zero,-40(fp)
 4001494:	00002f06 	br	4001554 <vid_print_char+0x1b4>
    	if(bit_num_char_temp > 8){
 4001498:	e0bff80b 	ldhu	r2,-32(fp)
 400149c:	10800270 	cmpltui	r2,r2,9
 40014a0:	1000061e 	bne	r2,zero,40014bc <vid_print_char+0x11c>
    		j_end = 8;
 40014a4:	00800204 	movi	r2,8
 40014a8:	e0bff715 	stw	r2,-36(fp)
    		bit_num_char_temp= bit_num_char_temp - 8;
 40014ac:	e0bff80b 	ldhu	r2,-32(fp)
 40014b0:	10bffe04 	addi	r2,r2,-8
 40014b4:	e0bff80d 	sth	r2,-32(fp)
 40014b8:	00000206 	br	40014c4 <vid_print_char+0x124>
    	}else{
    		j_end = bit_num_char_temp;
 40014bc:	e0bff80b 	ldhu	r2,-32(fp)
 40014c0:	e0bff715 	stw	r2,-36(fp)
    	}
    	for (j = 0; j < j_end; j++) {
 40014c4:	e03ff515 	stw	zero,-44(fp)
 40014c8:	00001c06 	br	400153c <vid_print_char+0x19c>
    		//If the font table says the pixel in this location is on for this character, then set it.
    		if (*(char_row+k) & (((alt_u8)0x80) >> j)) {
 40014cc:	e0bff617 	ldw	r2,-40(fp)
 40014d0:	e0fffb17 	ldw	r3,-20(fp)
 40014d4:	1885883a 	add	r2,r3,r2
 40014d8:	10800003 	ldbu	r2,0(r2)
 40014dc:	10c03fcc 	andi	r3,r2,255
 40014e0:	01002004 	movi	r4,128
 40014e4:	e0bff517 	ldw	r2,-44(fp)
 40014e8:	2085d83a 	sra	r2,r4,r2
 40014ec:	1884703a 	and	r2,r3,r2
 40014f0:	10000f26 	beq	r2,zero,4001530 <vid_print_char+0x190>
    			//vid_set_pixel((horiz_offset + j + k*8), (vert_offset + i), color); // plot the pixel
    			vid_set_pixel((vert_offset +i), (SCREEN_HEIGHT-horiz_offset - j -k*8), color);
 40014f4:	e0fffd17 	ldw	r3,-12(fp)
 40014f8:	e0bff417 	ldw	r2,-48(fp)
 40014fc:	1889883a 	add	r4,r3,r2
 4001500:	00c05004 	movi	r3,320
 4001504:	e0bffc17 	ldw	r2,-16(fp)
 4001508:	1887c83a 	sub	r3,r3,r2
 400150c:	e0bff517 	ldw	r2,-44(fp)
 4001510:	1887c83a 	sub	r3,r3,r2
 4001514:	e0bff617 	ldw	r2,-40(fp)
 4001518:	100490fa 	slli	r2,r2,3
 400151c:	1885c83a 	sub	r2,r3,r2
 4001520:	e0fffe17 	ldw	r3,-8(fp)
 4001524:	180d883a 	mov	r6,r3
 4001528:	100b883a 	mov	r5,r2
 400152c:	400fc180 	call	400fc18 <vid_set_pixel>
    		j_end = 8;
    		bit_num_char_temp= bit_num_char_temp - 8;
    	}else{
    		j_end = bit_num_char_temp;
    	}
    	for (j = 0; j < j_end; j++) {
 4001530:	e0bff517 	ldw	r2,-44(fp)
 4001534:	10800044 	addi	r2,r2,1
 4001538:	e0bff515 	stw	r2,-44(fp)
 400153c:	e0fff517 	ldw	r3,-44(fp)
 4001540:	e0bff717 	ldw	r2,-36(fp)
 4001544:	18bfe116 	blt	r3,r2,40014cc <__reset+0xfa8114cc>

  //Each character is 32 pixels wide and 31 tall.
  for(i = 0; i < 28; i++) { //31 arial
      char_row = font + (row_offset) + i*byte_offset;//i*4 arial
      bit_num_char_temp = bit_num_char;
    for(k = 0; k < byte_offset; k++){//4 arila
 4001548:	e0bff617 	ldw	r2,-40(fp)
 400154c:	10800044 	addi	r2,r2,1
 4001550:	e0bff615 	stw	r2,-40(fp)
 4001554:	e0bff883 	ldbu	r2,-30(fp)
 4001558:	e0fff617 	ldw	r3,-40(fp)
 400155c:	18bfce16 	blt	r3,r2,4001498 <__reset+0xfa811498>
  }else{
	  byte_offset = 4;
  }

  //Each character is 32 pixels wide and 31 tall.
  for(i = 0; i < 28; i++) { //31 arial
 4001560:	e0bff417 	ldw	r2,-48(fp)
 4001564:	10800044 	addi	r2,r2,1
 4001568:	e0bff415 	stw	r2,-48(fp)
 400156c:	e0bff417 	ldw	r2,-48(fp)
 4001570:	10800710 	cmplti	r2,r2,28
 4001574:	103fbc1e 	bne	r2,zero,4001468 <__reset+0xfa811468>
    			vid_set_pixel((vert_offset +i), (SCREEN_HEIGHT-horiz_offset - j -k*8), color);
    		}
    	}
    }
  }
  return(0);
 4001578:	0005883a 	mov	r2,zero
}
 400157c:	e037883a 	mov	sp,fp
 4001580:	dfc00117 	ldw	ra,4(sp)
 4001584:	df000017 	ldw	fp,0(sp)
 4001588:	dec00204 	addi	sp,sp,8
 400158c:	f800283a 	ret

04001590 <alarm_callback>:
	alt_u8 enable_xy;
	alt_u32 next_active_time;
} XY;

//  callback function for alarm
alt_u32 alarm_callback(void* context) {
 4001590:	defffc04 	addi	sp,sp,-16
 4001594:	dfc00315 	stw	ra,12(sp)
 4001598:	df000215 	stw	fp,8(sp)
 400159c:	df000204 	addi	fp,sp,8
 40015a0:	e13fff15 	stw	r4,-4(fp)
	//Set alarm flag
	printf("ALARM ton !!!\n");
 40015a4:	01010074 	movhi	r4,1025
 40015a8:	21132704 	addi	r4,r4,19612
 40015ac:	40022880 	call	4002288 <puts>
	printf("freq data\n");
 40015b0:	01010074 	movhi	r4,1025
 40015b4:	21132b04 	addi	r4,r4,19628
 40015b8:	40022880 	call	4002288 <puts>
	alt_u32 tmp = read_freq_pitch();
 40015bc:	40103f40 	call	40103f4 <read_freq_pitch>
 40015c0:	e0bffe15 	stw	r2,-8(fp)
	printf("freq data %ld\n", tmp);
 40015c4:	e17ffe17 	ldw	r5,-8(fp)
 40015c8:	01010074 	movhi	r4,1025
 40015cc:	21132e04 	addi	r4,r4,19640
 40015d0:	400218c0 	call	400218c <printf>
	draw_display_ton_update((cntrl_reg & 4) >> 2);
 40015d4:	d0a00003 	ldbu	r2,-32768(gp)
 40015d8:	10803fcc 	andi	r2,r2,255
 40015dc:	1080010c 	andi	r2,r2,4
 40015e0:	1005d0ba 	srai	r2,r2,2
 40015e4:	10803fcc 	andi	r2,r2,255
 40015e8:	1009883a 	mov	r4,r2
 40015ec:	4000ed80 	call	4000ed8 <draw_display_ton_update>
	return context = 100;
 40015f0:	00801904 	movi	r2,100
 40015f4:	e0bfff15 	stw	r2,-4(fp)
 40015f8:	00801904 	movi	r2,100
}
 40015fc:	e037883a 	mov	sp,fp
 4001600:	dfc00117 	ldw	ra,4(sp)
 4001604:	df000017 	ldw	fp,0(sp)
 4001608:	dec00204 	addi	sp,sp,8
 400160c:	f800283a 	ret

04001610 <alarm_callback_vol>:
//  callback function for alarm
alt_u32 alarm_callback_vol(void* context) {
 4001610:	defffd04 	addi	sp,sp,-12
 4001614:	dfc00215 	stw	ra,8(sp)
 4001618:	df000115 	stw	fp,4(sp)
 400161c:	df000104 	addi	fp,sp,4
 4001620:	e13fff15 	stw	r4,-4(fp)
	//Set alarm flag
	printf("ALARM vol!!!\n");
 4001624:	01010074 	movhi	r4,1025
 4001628:	21133204 	addi	r4,r4,19656
 400162c:	40022880 	call	4002288 <puts>
	printf("freq vol gen %d\n", read_freq_vol_gen());
 4001630:	40106bc0 	call	40106bc <read_freq_vol_gen>
 4001634:	100b883a 	mov	r5,r2
 4001638:	01010074 	movhi	r4,1025
 400163c:	21133604 	addi	r4,r4,19672
 4001640:	400218c0 	call	400218c <printf>
	return context = 500;
 4001644:	00807d04 	movi	r2,500
 4001648:	e0bfff15 	stw	r2,-4(fp)
 400164c:	00807d04 	movi	r2,500
}
 4001650:	e037883a 	mov	sp,fp
 4001654:	dfc00117 	ldw	ra,4(sp)
 4001658:	df000017 	ldw	fp,0(sp)
 400165c:	dec00204 	addi	sp,sp,8
 4001660:	f800283a 	ret

04001664 <main>:
int main() {
 4001664:	defff804 	addi	sp,sp,-32
 4001668:	dfc00715 	stw	ra,28(sp)
 400166c:	df000615 	stw	fp,24(sp)
 4001670:	df000604 	addi	fp,sp,24
	//initialization
	XY xy;
	xy.x_coord = 0;
 4001674:	e03ffd0d 	sth	zero,-12(fp)
	xy.y_coord = 0;
 4001678:	e03ffd8d 	sth	zero,-10(fp)
	xy.enable_xy = 0;
 400167c:	e03ffe05 	stb	zero,-8(fp)
	xy.next_active_time = 0;
 4001680:	e03fff15 	stw	zero,-4(fp)
	alt_u8 cali_enable = 1;
 4001684:	00800044 	movi	r2,1
 4001688:	e0bffa05 	stb	r2,-24(fp)
	alt_u8 vol_bar = 1;
 400168c:	00800044 	movi	r2,1
 4001690:	e0bffa45 	stb	r2,-23(fp)
	alt_u8 glissando_on_off = 0;
 4001694:	e03ffc05 	stb	zero,-16(fp)
	alt_u8 glissando_delay = 1;
 4001698:	00800044 	movi	r2,1
 400169c:	e0bffa85 	stb	r2,-22(fp)
	//init
	touch_init(&xy);
 40016a0:	e0bffd04 	addi	r2,fp,-12
 40016a4:	1009883a 	mov	r4,r2
 40016a8:	4001f880 	call	4001f88 <touch_init>
	LCD_Init();
 40016ac:	400fcb80 	call	400fcb8 <LCD_Init>
	LCD_Clear(WHITE);
 40016b0:	013fffd4 	movui	r4,65535
 40016b4:	400fa4c0 	call	400fa4c <LCD_Clear>
	codec_wm8731_init();
 40016b8:	400028c0 	call	400028c <codec_wm8731_init>

	state state = ST_main;
 40016bc:	e03ffb15 	stw	zero,-20(fp)
	draw_main_screen();
 40016c0:	40004340 	call	4000434 <draw_main_screen>
	printf("Hello from Nios II!\n");
 40016c4:	01010074 	movhi	r4,1025
 40016c8:	21133b04 	addi	r4,r4,19692
 40016cc:	40022880 	call	4002288 <puts>

	//set alarm vol
	if (alt_alarm_start(&vol_alarm, 500, alarm_callback_vol, NULL) < 0) {
 40016d0:	000f883a 	mov	r7,zero
 40016d4:	01810034 	movhi	r6,1024
 40016d8:	31858404 	addi	r6,r6,5648
 40016dc:	01407d04 	movi	r5,500
 40016e0:	01010074 	movhi	r4,1025
 40016e4:	211c4104 	addi	r4,r4,28932
 40016e8:	400e9340 	call	400e934 <alt_alarm_start>
 40016ec:	1000030e 	bge	r2,zero,40016fc <main+0x98>
		printf("No System Clock Available\n");
 40016f0:	01010074 	movhi	r4,1025
 40016f4:	21134004 	addi	r4,r4,19712
 40016f8:	40022880 	call	4002288 <puts>
	}

	while (1) {

		if (xy.enable_xy == 1) {
 40016fc:	e0bffe03 	ldbu	r2,-8(fp)
 4001700:	10803fcc 	andi	r2,r2,255
 4001704:	10800058 	cmpnei	r2,r2,1
 4001708:	103ffc1e 	bne	r2,zero,40016fc <__reset+0xfa8116fc>
			xy.enable_xy = 0;
 400170c:	e03ffe05 	stb	zero,-8(fp)

			switch (state) {
 4001710:	e0bffb17 	ldw	r2,-20(fp)
 4001714:	108001a8 	cmpgeui	r2,r2,6
 4001718:	103ff81e 	bne	r2,zero,40016fc <__reset+0xfa8116fc>
 400171c:	e0bffb17 	ldw	r2,-20(fp)
 4001720:	100690ba 	slli	r3,r2,2
 4001724:	00810034 	movhi	r2,1024
 4001728:	1085ce04 	addi	r2,r2,5944
 400172c:	1885883a 	add	r2,r3,r2
 4001730:	10800017 	ldw	r2,0(r2)
 4001734:	1000683a 	jmp	r2
 4001738:	04001750 	cmplti	r16,zero,93
 400173c:	040018d8 	cmpnei	r16,zero,99
 4001740:	04001808 	cmpgei	r16,zero,96
 4001744:	0400191c 	xori	r16,zero,100
 4001748:	04001a64 	muli	r16,zero,105
 400174c:	04001bf8 	rdprs	r16,zero,111
			//******main state**********************************************************************
			case ST_main:
				if (xy.y_coord <= 1400) { //Coordinates for calibration
 4001750:	e0bffd8b 	ldhu	r2,-10(fp)
 4001754:	10bfffcc 	andi	r2,r2,65535
 4001758:	10815e68 	cmpgeui	r2,r2,1401
 400175c:	10000e1e 	bne	r2,zero,4001798 <main+0x134>
					state = ST_cali;
 4001760:	00800044 	movi	r2,1
 4001764:	e0bffb15 	stw	r2,-20(fp)

					LCD_Clear(WHITE);
 4001768:	013fffd4 	movui	r4,65535
 400176c:	400fa4c0 	call	400fa4c <LCD_Clear>
					draw_calibrating_screen();
 4001770:	40005400 	call	4000540 <draw_calibrating_screen>
					cali_enable = 1;
 4001774:	00800044 	movi	r2,1
 4001778:	e0bffa05 	stb	r2,-24(fp)

					usleep(1000000);
 400177c:	010003f4 	movhi	r4,15
 4001780:	21109004 	addi	r4,r4,16960
 4001784:	400f5c80 	call	400f5c8 <usleep>

					LCD_Clear(WHITE);
 4001788:	013fffd4 	movui	r4,65535
 400178c:	400fa4c0 	call	400fa4c <LCD_Clear>
					draw_calibrating_screen_done();
 4001790:	40006a00 	call	40006a0 <draw_calibrating_screen_done>
					state = ST_play_help;
					LCD_Clear(WHITE);
					draw_help_screen();
					draw_glissando_on_off(cntrl_reg & 0x01);
				}
				break;
 4001794:	00012e06 	br	4001c50 <main+0x5ec>

					usleep(1000000);

					LCD_Clear(WHITE);
					draw_calibrating_screen_done();
				} else if (xy.y_coord <= 2800) { //Coordinates for volume state
 4001798:	e0bffd8b 	ldhu	r2,-10(fp)
 400179c:	10bfffcc 	andi	r2,r2,65535
 40017a0:	1082bc68 	cmpgeui	r2,r2,2801
 40017a4:	1000091e 	bne	r2,zero,40017cc <main+0x168>
					state = ST_volume;
 40017a8:	00800084 	movi	r2,2
 40017ac:	e0bffb15 	stw	r2,-20(fp)
					LCD_Clear(WHITE);
 40017b0:	013fffd4 	movui	r4,65535
 40017b4:	400fa4c0 	call	400fa4c <LCD_Clear>
					draw_volume_screen();
 40017b8:	40007740 	call	4000774 <draw_volume_screen>
					draw_update_volume_bar(vol_bar);
 40017bc:	e0bffa43 	ldbu	r2,-23(fp)
 40017c0:	1009883a 	mov	r4,r2
 40017c4:	40008b00 	call	40008b0 <draw_update_volume_bar>
					state = ST_play_help;
					LCD_Clear(WHITE);
					draw_help_screen();
					draw_glissando_on_off(cntrl_reg & 0x01);
				}
				break;
 40017c8:	00012106 	br	4001c50 <main+0x5ec>
				} else if (xy.y_coord <= 2800) { //Coordinates for volume state
					state = ST_volume;
					LCD_Clear(WHITE);
					draw_volume_screen();
					draw_update_volume_bar(vol_bar);
				} else if (xy.y_coord > 2800) { //Coordinates for play help
 40017cc:	e0bffd8b 	ldhu	r2,-10(fp)
 40017d0:	10bfffcc 	andi	r2,r2,65535
 40017d4:	1082bc70 	cmpltui	r2,r2,2801
 40017d8:	10011d1e 	bne	r2,zero,4001c50 <main+0x5ec>
					state = ST_play_help;
 40017dc:	008000c4 	movi	r2,3
 40017e0:	e0bffb15 	stw	r2,-20(fp)
					LCD_Clear(WHITE);
 40017e4:	013fffd4 	movui	r4,65535
 40017e8:	400fa4c0 	call	400fa4c <LCD_Clear>
					draw_help_screen();
 40017ec:	400095c0 	call	400095c <draw_help_screen>
					draw_glissando_on_off(cntrl_reg & 0x01);
 40017f0:	d0a00003 	ldbu	r2,-32768(gp)
 40017f4:	10803fcc 	andi	r2,r2,255
 40017f8:	1080004c 	andi	r2,r2,1
 40017fc:	1009883a 	mov	r4,r2
 4001800:	4000a680 	call	4000a68 <draw_glissando_on_off>
				}
				break;
 4001804:	00011206 	br	4001c50 <main+0x5ec>
			//******volume state*********************************************************
			case ST_volume:
				if ((xy.y_coord >= 2800) && (xy.x_coord <= 1100)) { //Coordinates for return
 4001808:	e0bffd8b 	ldhu	r2,-10(fp)
 400180c:	10bfffcc 	andi	r2,r2,65535
 4001810:	1082bc30 	cmpltui	r2,r2,2800
 4001814:	1000091e 	bne	r2,zero,400183c <main+0x1d8>
 4001818:	e0bffd0b 	ldhu	r2,-12(fp)
 400181c:	10bfffcc 	andi	r2,r2,65535
 4001820:	10811368 	cmpgeui	r2,r2,1101
 4001824:	1000051e 	bne	r2,zero,400183c <main+0x1d8>
					state = ST_main;
 4001828:	e03ffb15 	stw	zero,-20(fp)
					LCD_Clear(WHITE);
 400182c:	013fffd4 	movui	r4,65535
 4001830:	400fa4c0 	call	400fa4c <LCD_Clear>
					draw_main_screen();
 4001834:	40004340 	call	4000434 <draw_main_screen>
					}
					set_vol_gen(vol_bar);
					printf("vol_gain Register %d\n", read_vol_gain_gen());
					draw_update_volume_bar(vol_bar);
				}
				break;
 4001838:	00010e06 	br	4001c74 <main+0x610>
				if ((xy.y_coord >= 2800) && (xy.x_coord <= 1100)) { //Coordinates for return
					state = ST_main;
					LCD_Clear(WHITE);
					draw_main_screen();
				} else{
					if ((xy.y_coord <= 2050) && (xy.x_coord <= 700)) { //Coordinates for -vol
 400183c:	e0bffd8b 	ldhu	r2,-10(fp)
 4001840:	10bfffcc 	andi	r2,r2,65535
 4001844:	108200e8 	cmpgeui	r2,r2,2051
 4001848:	1000091e 	bne	r2,zero,4001870 <main+0x20c>
 400184c:	e0bffd0b 	ldhu	r2,-12(fp)
 4001850:	10bfffcc 	andi	r2,r2,65535
 4001854:	1080af68 	cmpgeui	r2,r2,701
 4001858:	1000051e 	bne	r2,zero,4001870 <main+0x20c>
						if(vol_bar != 0){
 400185c:	e0bffa43 	ldbu	r2,-23(fp)
 4001860:	10000326 	beq	r2,zero,4001870 <main+0x20c>
							vol_bar--;
 4001864:	e0bffa43 	ldbu	r2,-23(fp)
 4001868:	10bfffc4 	addi	r2,r2,-1
 400186c:	e0bffa45 	stb	r2,-23(fp)
						}
					}
					if ((xy.y_coord <= 2050) && (xy.x_coord >= 1300)) { //Coordinates for +vol
 4001870:	e0bffd8b 	ldhu	r2,-10(fp)
 4001874:	10bfffcc 	andi	r2,r2,65535
 4001878:	108200e8 	cmpgeui	r2,r2,2051
 400187c:	10000a1e 	bne	r2,zero,40018a8 <main+0x244>
 4001880:	e0bffd0b 	ldhu	r2,-12(fp)
 4001884:	10bfffcc 	andi	r2,r2,65535
 4001888:	10814530 	cmpltui	r2,r2,1300
 400188c:	1000061e 	bne	r2,zero,40018a8 <main+0x244>
						if (vol_bar != 9) {
 4001890:	e0bffa43 	ldbu	r2,-23(fp)
 4001894:	10800260 	cmpeqi	r2,r2,9
 4001898:	1000031e 	bne	r2,zero,40018a8 <main+0x244>
							vol_bar++;
 400189c:	e0bffa43 	ldbu	r2,-23(fp)
 40018a0:	10800044 	addi	r2,r2,1
 40018a4:	e0bffa45 	stb	r2,-23(fp)
						}
					}
					set_vol_gen(vol_bar);
 40018a8:	e0bffa43 	ldbu	r2,-23(fp)
 40018ac:	1009883a 	mov	r4,r2
 40018b0:	40106840 	call	4010684 <set_vol_gen>
					printf("vol_gain Register %d\n", read_vol_gain_gen());
 40018b4:	401070c0 	call	401070c <read_vol_gain_gen>
 40018b8:	100b883a 	mov	r5,r2
 40018bc:	01010074 	movhi	r4,1025
 40018c0:	21134704 	addi	r4,r4,19740
 40018c4:	400218c0 	call	400218c <printf>
					draw_update_volume_bar(vol_bar);
 40018c8:	e0bffa43 	ldbu	r2,-23(fp)
 40018cc:	1009883a 	mov	r4,r2
 40018d0:	40008b00 	call	40008b0 <draw_update_volume_bar>
				}
				break;
 40018d4:	0000e706 	br	4001c74 <main+0x610>
		    //******calibration state****************************************************
			case ST_cali:
				if (cali_enable == 1) {
 40018d8:	e0bffa03 	ldbu	r2,-24(fp)
 40018dc:	10800058 	cmpnei	r2,r2,1
 40018e0:	1000dd1e 	bne	r2,zero,4001c58 <main+0x5f4>
					if ((xy.y_coord >= 2800) && (xy.x_coord <= 1100)) { //Coordinates for return to main
 40018e4:	e0bffd8b 	ldhu	r2,-10(fp)
 40018e8:	10bfffcc 	andi	r2,r2,65535
 40018ec:	1082bc30 	cmpltui	r2,r2,2800
 40018f0:	1000d91e 	bne	r2,zero,4001c58 <main+0x5f4>
 40018f4:	e0bffd0b 	ldhu	r2,-12(fp)
 40018f8:	10bfffcc 	andi	r2,r2,65535
 40018fc:	10811368 	cmpgeui	r2,r2,1101
 4001900:	1000d51e 	bne	r2,zero,4001c58 <main+0x5f4>
						cali_enable = 0;
 4001904:	e03ffa05 	stb	zero,-24(fp)
						state = ST_main;
 4001908:	e03ffb15 	stw	zero,-20(fp)
						LCD_Clear(WHITE);
 400190c:	013fffd4 	movui	r4,65535
 4001910:	400fa4c0 	call	400fa4c <LCD_Clear>
						draw_main_screen();
 4001914:	40004340 	call	4000434 <draw_main_screen>
					}
				}
				break;
 4001918:	0000cf06 	br	4001c58 <main+0x5f4>
			//******play help state******************************************************
			case ST_play_help:
				if ((xy.y_coord >= 2800) && (xy.x_coord <= 1100)) { //Coordinates for return to main
 400191c:	e0bffd8b 	ldhu	r2,-10(fp)
 4001920:	10bfffcc 	andi	r2,r2,65535
 4001924:	1082bc30 	cmpltui	r2,r2,2800
 4001928:	1000091e 	bne	r2,zero,4001950 <main+0x2ec>
 400192c:	e0bffd0b 	ldhu	r2,-12(fp)
 4001930:	10bfffcc 	andi	r2,r2,65535
 4001934:	10811368 	cmpgeui	r2,r2,1101
 4001938:	1000051e 	bne	r2,zero,4001950 <main+0x2ec>
					state = ST_main;
 400193c:	e03ffb15 	stw	zero,-20(fp)
					LCD_Clear(WHITE);
 4001940:	013fffd4 	movui	r4,65535
 4001944:	400fa4c0 	call	400fa4c <LCD_Clear>
					draw_main_screen();
 4001948:	40004340 	call	4000434 <draw_main_screen>
 400194c:	00004406 	br	4001a60 <main+0x3fc>
				} else if ((xy.y_coord <= 1200) && (xy.x_coord >= 1300)) { //Coordinates for glissando on off
 4001950:	e0bffd8b 	ldhu	r2,-10(fp)
 4001954:	10bfffcc 	andi	r2,r2,65535
 4001958:	10812c68 	cmpgeui	r2,r2,1201
 400195c:	1000111e 	bne	r2,zero,40019a4 <main+0x340>
 4001960:	e0bffd0b 	ldhu	r2,-12(fp)
 4001964:	10bfffcc 	andi	r2,r2,65535
 4001968:	10814530 	cmpltui	r2,r2,1300
 400196c:	10000d1e 	bne	r2,zero,40019a4 <main+0x340>
					cntrl_reg = cntrl_reg ^ 0x01;
 4001970:	d0a00003 	ldbu	r2,-32768(gp)
 4001974:	1080005c 	xori	r2,r2,1
 4001978:	d0a00005 	stb	r2,-32768(gp)

					draw_glissando_on_off(cntrl_reg & 0x01);
 400197c:	d0a00003 	ldbu	r2,-32768(gp)
 4001980:	10803fcc 	andi	r2,r2,255
 4001984:	1080004c 	andi	r2,r2,1
 4001988:	1009883a 	mov	r4,r2
 400198c:	4000a680 	call	4000a68 <draw_glissando_on_off>
					set_cntrl_reg(cntrl_reg);
 4001990:	d0a00003 	ldbu	r2,-32768(gp)
 4001994:	10803fcc 	andi	r2,r2,255
 4001998:	1009883a 	mov	r4,r2
 400199c:	40103600 	call	4010360 <set_cntrl_reg>
 40019a0:	00002f06 	br	4001a60 <main+0x3fc>
				} else if ((xy.y_coord <= 1200) && (xy.x_coord <= 1300)) { //Coordinates for glissando set
 40019a4:	e0bffd8b 	ldhu	r2,-10(fp)
 40019a8:	10bfffcc 	andi	r2,r2,65535
 40019ac:	10812c68 	cmpgeui	r2,r2,1201
 40019b0:	1000121e 	bne	r2,zero,40019fc <main+0x398>
 40019b4:	e0bffd0b 	ldhu	r2,-12(fp)
 40019b8:	10bfffcc 	andi	r2,r2,65535
 40019bc:	10814568 	cmpgeui	r2,r2,1301
 40019c0:	10000e1e 	bne	r2,zero,40019fc <main+0x398>
					state = ST_glissando_set;
 40019c4:	00800104 	movi	r2,4
 40019c8:	e0bffb15 	stw	r2,-20(fp)
					LCD_Clear(WHITE);
 40019cc:	013fffd4 	movui	r4,65535
 40019d0:	400fa4c0 	call	400fa4c <LCD_Clear>
					draw_glissando_set();
 40019d4:	4000b400 	call	4000b40 <draw_glissando_set>
					draw_update_glissando_delay(glissando_delay);
 40019d8:	e0bffa83 	ldbu	r2,-22(fp)
 40019dc:	1009883a 	mov	r4,r2
 40019e0:	4000c980 	call	4000c98 <draw_update_glissando_delay>
					draw_penta_on_off(cntrl_reg & 0x04);
 40019e4:	d0a00003 	ldbu	r2,-32768(gp)
 40019e8:	10803fcc 	andi	r2,r2,255
 40019ec:	1080010c 	andi	r2,r2,4
 40019f0:	1009883a 	mov	r4,r2
 40019f4:	4000d400 	call	4000d40 <draw_penta_on_off>
 40019f8:	00001906 	br	4001a60 <main+0x3fc>
				} else if ((xy.y_coord >= 1200) && (xy.x_coord >= 1300)) { //Coordinates for display ton
 40019fc:	e0bffd8b 	ldhu	r2,-10(fp)
 4001a00:	10bfffcc 	andi	r2,r2,65535
 4001a04:	10812c30 	cmpltui	r2,r2,1200
 4001a08:	1000951e 	bne	r2,zero,4001c60 <main+0x5fc>
 4001a0c:	e0bffd0b 	ldhu	r2,-12(fp)
 4001a10:	10bfffcc 	andi	r2,r2,65535
 4001a14:	10814530 	cmpltui	r2,r2,1300
 4001a18:	1000911e 	bne	r2,zero,4001c60 <main+0x5fc>
					state = ST_display_ton;
 4001a1c:	00800144 	movi	r2,5
 4001a20:	e0bffb15 	stw	r2,-20(fp)
					//Configure alarm for 1 seconds
					if (alt_alarm_start(&my_alarm, 100, alarm_callback, NULL) < 0) {
 4001a24:	000f883a 	mov	r7,zero
 4001a28:	01810034 	movhi	r6,1024
 4001a2c:	31856404 	addi	r6,r6,5520
 4001a30:	01401904 	movi	r5,100
 4001a34:	01010074 	movhi	r4,1025
 4001a38:	211c3b04 	addi	r4,r4,28908
 4001a3c:	400e9340 	call	400e934 <alt_alarm_start>
 4001a40:	1000030e 	bge	r2,zero,4001a50 <main+0x3ec>
						printf("No System Clock Available\n");
 4001a44:	01010074 	movhi	r4,1025
 4001a48:	21134004 	addi	r4,r4,19712
 4001a4c:	40022880 	call	4002288 <puts>
					}
					LCD_Clear(WHITE);
 4001a50:	013fffd4 	movui	r4,65535
 4001a54:	400fa4c0 	call	400fa4c <LCD_Clear>
					draw_display_ton();
 4001a58:	4000e180 	call	4000e18 <draw_display_ton>
				}
				break;
 4001a5c:	00008006 	br	4001c60 <main+0x5fc>
 4001a60:	00007f06 	br	4001c60 <main+0x5fc>
			//******glissando seting state**********************************************
			case ST_glissando_set:
				if ((xy.y_coord >= 2800) && (xy.x_coord <= 1100)) { //Coordinates for return play help
 4001a64:	e0bffd8b 	ldhu	r2,-10(fp)
 4001a68:	10bfffcc 	andi	r2,r2,65535
 4001a6c:	1082bc30 	cmpltui	r2,r2,2800
 4001a70:	10000f1e 	bne	r2,zero,4001ab0 <main+0x44c>
 4001a74:	e0bffd0b 	ldhu	r2,-12(fp)
 4001a78:	10bfffcc 	andi	r2,r2,65535
 4001a7c:	10811368 	cmpgeui	r2,r2,1101
 4001a80:	10000b1e 	bne	r2,zero,4001ab0 <main+0x44c>
					state = ST_play_help;
 4001a84:	008000c4 	movi	r2,3
 4001a88:	e0bffb15 	stw	r2,-20(fp)
					LCD_Clear(WHITE);
 4001a8c:	013fffd4 	movui	r4,65535
 4001a90:	400fa4c0 	call	400fa4c <LCD_Clear>
					draw_help_screen();
 4001a94:	400095c0 	call	400095c <draw_help_screen>
					draw_glissando_on_off(cntrl_reg & 0x01);
 4001a98:	d0a00003 	ldbu	r2,-32768(gp)
 4001a9c:	10803fcc 	andi	r2,r2,255
 4001aa0:	1080004c 	andi	r2,r2,1
 4001aa4:	1009883a 	mov	r4,r2
 4001aa8:	4000a680 	call	4000a68 <draw_glissando_on_off>
 4001aac:	00005106 	br	4001bf4 <main+0x590>
				} else if ((xy.y_coord <= 2050) && (xy.x_coord <= 700)) { //Coordinates for delay -
 4001ab0:	e0bffd8b 	ldhu	r2,-10(fp)
 4001ab4:	10bfffcc 	andi	r2,r2,65535
 4001ab8:	108200e8 	cmpgeui	r2,r2,2051
 4001abc:	10001d1e 	bne	r2,zero,4001b34 <main+0x4d0>
 4001ac0:	e0bffd0b 	ldhu	r2,-12(fp)
 4001ac4:	10bfffcc 	andi	r2,r2,65535
 4001ac8:	1080af68 	cmpgeui	r2,r2,701
 4001acc:	1000191e 	bne	r2,zero,4001b34 <main+0x4d0>
					if (glissando_delay <= 1) {
 4001ad0:	e0bffa83 	ldbu	r2,-22(fp)
 4001ad4:	108000a8 	cmpgeui	r2,r2,2
 4001ad8:	1000021e 	bne	r2,zero,4001ae4 <main+0x480>
						glissando_delay = 2;
 4001adc:	00800084 	movi	r2,2
 4001ae0:	e0bffa85 	stb	r2,-22(fp)
					}
					glissando_delay--;
 4001ae4:	e0bffa83 	ldbu	r2,-22(fp)
 4001ae8:	10bfffc4 	addi	r2,r2,-1
 4001aec:	e0bffa85 	stb	r2,-22(fp)
					set_glissando_delay(glissando_delay);
 4001af0:	e0bffa83 	ldbu	r2,-22(fp)
 4001af4:	1009883a 	mov	r4,r2
 4001af8:	40103280 	call	4010328 <set_glissando_delay>
					draw_update_glissando_delay(glissando_delay);
 4001afc:	e0bffa83 	ldbu	r2,-22(fp)
 4001b00:	1009883a 	mov	r4,r2
 4001b04:	4000c980 	call	4000c98 <draw_update_glissando_delay>
					printf("freq pitch %d\n", read_freq_pitch());
 4001b08:	40103f40 	call	40103f4 <read_freq_pitch>
 4001b0c:	100b883a 	mov	r5,r2
 4001b10:	01010074 	movhi	r4,1025
 4001b14:	21134d04 	addi	r4,r4,19764
 4001b18:	400218c0 	call	400218c <printf>
					printf("gli_delay register %d\n", read_delay_gli());
 4001b1c:	401041c0 	call	401041c <read_delay_gli>
 4001b20:	100b883a 	mov	r5,r2
 4001b24:	01010074 	movhi	r4,1025
 4001b28:	21135104 	addi	r4,r4,19780
 4001b2c:	400218c0 	call	400218c <printf>
 4001b30:	00003006 	br	4001bf4 <main+0x590>
				} else if ((xy.y_coord <= 2050) && (xy.x_coord >= 1300)) { //Coordinates for delay +
 4001b34:	e0bffd8b 	ldhu	r2,-10(fp)
 4001b38:	10bfffcc 	andi	r2,r2,65535
 4001b3c:	108200e8 	cmpgeui	r2,r2,2051
 4001b40:	1000181e 	bne	r2,zero,4001ba4 <main+0x540>
 4001b44:	e0bffd0b 	ldhu	r2,-12(fp)
 4001b48:	10bfffcc 	andi	r2,r2,65535
 4001b4c:	10814530 	cmpltui	r2,r2,1300
 4001b50:	1000141e 	bne	r2,zero,4001ba4 <main+0x540>
					glissando_delay++;
 4001b54:	e0bffa83 	ldbu	r2,-22(fp)
 4001b58:	10800044 	addi	r2,r2,1
 4001b5c:	e0bffa85 	stb	r2,-22(fp)
					if (glissando_delay >= 10) {
 4001b60:	e0bffa83 	ldbu	r2,-22(fp)
 4001b64:	108002b0 	cmpltui	r2,r2,10
 4001b68:	1000021e 	bne	r2,zero,4001b74 <main+0x510>
						glissando_delay = 10;
 4001b6c:	00800284 	movi	r2,10
 4001b70:	e0bffa85 	stb	r2,-22(fp)
					}
					set_glissando_delay(glissando_delay);
 4001b74:	e0bffa83 	ldbu	r2,-22(fp)
 4001b78:	1009883a 	mov	r4,r2
 4001b7c:	40103280 	call	4010328 <set_glissando_delay>
					draw_update_glissando_delay(glissando_delay);
 4001b80:	e0bffa83 	ldbu	r2,-22(fp)
 4001b84:	1009883a 	mov	r4,r2
 4001b88:	4000c980 	call	4000c98 <draw_update_glissando_delay>
					printf("gli_delay register %d\n", read_delay_gli());
 4001b8c:	401041c0 	call	401041c <read_delay_gli>
 4001b90:	100b883a 	mov	r5,r2
 4001b94:	01010074 	movhi	r4,1025
 4001b98:	21135104 	addi	r4,r4,19780
 4001b9c:	400218c0 	call	400218c <printf>
 4001ba0:	00001406 	br	4001bf4 <main+0x590>
				} else if ((xy.y_coord > 1900) && (xy.x_coord >= 1800)){ //Coordinates for musical scale setting(Tonleiter)
 4001ba4:	e0bffd8b 	ldhu	r2,-10(fp)
 4001ba8:	10bfffcc 	andi	r2,r2,65535
 4001bac:	1081db70 	cmpltui	r2,r2,1901
 4001bb0:	10002d1e 	bne	r2,zero,4001c68 <main+0x604>
 4001bb4:	e0bffd0b 	ldhu	r2,-12(fp)
 4001bb8:	10bfffcc 	andi	r2,r2,65535
 4001bbc:	1081c230 	cmpltui	r2,r2,1800
 4001bc0:	1000291e 	bne	r2,zero,4001c68 <main+0x604>
					cntrl_reg = cntrl_reg^ 0x04;
 4001bc4:	d0a00003 	ldbu	r2,-32768(gp)
 4001bc8:	1080011c 	xori	r2,r2,4
 4001bcc:	d0a00005 	stb	r2,-32768(gp)
					draw_penta_on_off(cntrl_reg);
 4001bd0:	d0a00003 	ldbu	r2,-32768(gp)
 4001bd4:	10803fcc 	andi	r2,r2,255
 4001bd8:	1009883a 	mov	r4,r2
 4001bdc:	4000d400 	call	4000d40 <draw_penta_on_off>
					set_cntrl_reg(cntrl_reg);
 4001be0:	d0a00003 	ldbu	r2,-32768(gp)
 4001be4:	10803fcc 	andi	r2,r2,255
 4001be8:	1009883a 	mov	r4,r2
 4001bec:	40103600 	call	4010360 <set_cntrl_reg>


				}
				break;
 4001bf0:	00001d06 	br	4001c68 <main+0x604>
 4001bf4:	00001c06 	br	4001c68 <main+0x604>
			//******display ton state****************************************************
			case ST_display_ton:
				if ((xy.y_coord >= 2800) && (xy.x_coord <= 1100)) { //Coordinates for return play help
 4001bf8:	e0bffd8b 	ldhu	r2,-10(fp)
 4001bfc:	10bfffcc 	andi	r2,r2,65535
 4001c00:	1082bc30 	cmpltui	r2,r2,2800
 4001c04:	10001a1e 	bne	r2,zero,4001c70 <main+0x60c>
 4001c08:	e0bffd0b 	ldhu	r2,-12(fp)
 4001c0c:	10bfffcc 	andi	r2,r2,65535
 4001c10:	10811368 	cmpgeui	r2,r2,1101
 4001c14:	1000161e 	bne	r2,zero,4001c70 <main+0x60c>
					state = ST_play_help;
 4001c18:	008000c4 	movi	r2,3
 4001c1c:	e0bffb15 	stw	r2,-20(fp)
					alt_alarm_stop(&my_alarm);
 4001c20:	01010074 	movhi	r4,1025
 4001c24:	211c3b04 	addi	r4,r4,28908
 4001c28:	400f4240 	call	400f424 <alt_alarm_stop>
					LCD_Clear(WHITE);
 4001c2c:	013fffd4 	movui	r4,65535
 4001c30:	400fa4c0 	call	400fa4c <LCD_Clear>
					draw_help_screen();
 4001c34:	400095c0 	call	400095c <draw_help_screen>
					draw_glissando_on_off(cntrl_reg & 0x01);
 4001c38:	d0a00003 	ldbu	r2,-32768(gp)
 4001c3c:	10803fcc 	andi	r2,r2,255
 4001c40:	1080004c 	andi	r2,r2,1
 4001c44:	1009883a 	mov	r4,r2
 4001c48:	4000a680 	call	4000a68 <draw_glissando_on_off>

				}
				break;
 4001c4c:	00000806 	br	4001c70 <main+0x60c>
					state = ST_play_help;
					LCD_Clear(WHITE);
					draw_help_screen();
					draw_glissando_on_off(cntrl_reg & 0x01);
				}
				break;
 4001c50:	0001883a 	nop
 4001c54:	003ea906 	br	40016fc <__reset+0xfa8116fc>
						state = ST_main;
						LCD_Clear(WHITE);
						draw_main_screen();
					}
				}
				break;
 4001c58:	0001883a 	nop
 4001c5c:	003ea706 	br	40016fc <__reset+0xfa8116fc>
						printf("No System Clock Available\n");
					}
					LCD_Clear(WHITE);
					draw_display_ton();
				}
				break;
 4001c60:	0001883a 	nop
 4001c64:	003ea506 	br	40016fc <__reset+0xfa8116fc>
					draw_penta_on_off(cntrl_reg);
					set_cntrl_reg(cntrl_reg);


				}
				break;
 4001c68:	0001883a 	nop
 4001c6c:	003ea306 	br	40016fc <__reset+0xfa8116fc>
					LCD_Clear(WHITE);
					draw_help_screen();
					draw_glissando_on_off(cntrl_reg & 0x01);

				}
				break;
 4001c70:	0001883a 	nop
			}
		}
	}
 4001c74:	003ea106 	br	40016fc <__reset+0xfa8116fc>

04001c78 <touch_isr>:
 * Function:
 * Purpose :
 * Return  : none
 *--------------------------------------------------*/
void touch_isr(void * context)
{
 4001c78:	defff604 	addi	sp,sp,-40
 4001c7c:	dfc00915 	stw	ra,36(sp)
 4001c80:	df000815 	stw	fp,32(sp)
 4001c84:	df000804 	addi	fp,sp,32
 4001c88:	e13fff15 	stw	r4,-4(fp)

	alt_ic_irq_disable(TOUCH_PANEL_PEN_IRQ_N_IRQ_INTERRUPT_CONTROLLER_ID,TOUCH_PANEL_PEN_IRQ_N_IRQ);
 4001c8c:	014000c4 	movi	r5,3
 4001c90:	0009883a 	mov	r4,zero
 4001c94:	400ed5c0 	call	400ed5c <alt_ic_irq_disable>
	//Flag touched
	//alt_u8* touched = (alt_u8*)context;
	//*touched = 1;
	printf("touched!\n");
 4001c98:	01010074 	movhi	r4,1025
 4001c9c:	21135704 	addi	r4,r4,19804
 4001ca0:	40022880 	call	4002288 <puts>

	volatile XY* xy = (XY*)context;
 4001ca4:	e0bfff17 	ldw	r2,-4(fp)
 4001ca8:	e0bffb15 	stw	r2,-20(fp)

	volatile alt_u8 high_byte, low_byte;
	alt_u8 data8;
    // x
	//alt_ic_irq_disable(TOUCH_PANEL_PEN_IRQ_N_IRQ_INTERRUPT_CONTROLLER_ID,TOUCH_PANEL_PEN_IRQ_N_IRQ);
    result = alt_avalon_spi_command(TOUCH_PANEL_SPI_BASE, 0, sizeof(CommandGetX), &CommandGetX, 0, 0,ALT_AVALON_SPI_COMMAND_MERGE);
 4001cac:	00800044 	movi	r2,1
 4001cb0:	d8800215 	stw	r2,8(sp)
 4001cb4:	d8000115 	stw	zero,4(sp)
 4001cb8:	d8000015 	stw	zero,0(sp)
 4001cbc:	d1e00044 	addi	r7,gp,-32767
 4001cc0:	01800044 	movi	r6,1
 4001cc4:	000b883a 	mov	r5,zero
 4001cc8:	01028034 	movhi	r4,2560
 4001ccc:	21040804 	addi	r4,r4,4128
 4001cd0:	401119c0 	call	401119c <alt_avalon_spi_command>
 4001cd4:	e0bffc15 	stw	r2,-16(fp)
    result = alt_avalon_spi_command(TOUCH_PANEL_SPI_BASE, 0, 0, 0, sizeof(high_byte), (alt_u8*)&high_byte,ALT_AVALON_SPI_COMMAND_MERGE);
 4001cd8:	00800044 	movi	r2,1
 4001cdc:	d8800215 	stw	r2,8(sp)
 4001ce0:	e0bffe04 	addi	r2,fp,-8
 4001ce4:	d8800115 	stw	r2,4(sp)
 4001ce8:	00800044 	movi	r2,1
 4001cec:	d8800015 	stw	r2,0(sp)
 4001cf0:	000f883a 	mov	r7,zero
 4001cf4:	000d883a 	mov	r6,zero
 4001cf8:	000b883a 	mov	r5,zero
 4001cfc:	01028034 	movhi	r4,2560
 4001d00:	21040804 	addi	r4,r4,4128
 4001d04:	401119c0 	call	401119c <alt_avalon_spi_command>
 4001d08:	e0bffc15 	stw	r2,-16(fp)
    if (result != sizeof(high_byte)){
 4001d0c:	e0bffc17 	ldw	r2,-16(fp)
 4001d10:	10800060 	cmpeqi	r2,r2,1
 4001d14:	1000041e 	bne	r2,zero,4001d28 <touch_isr+0xb0>
        printf(("[TOUCH] failed to get x\n row32"));
 4001d18:	01010074 	movhi	r4,1025
 4001d1c:	21135a04 	addi	r4,r4,19816
 4001d20:	400218c0 	call	400218c <printf>
        return;
 4001d24:	00009306 	br	4001f74 <touch_isr+0x2fc>
    }

    result = alt_avalon_spi_command(TOUCH_PANEL_SPI_BASE, 0, 0, 0, sizeof(low_byte), (alt_u8*)&low_byte,ALT_AVALON_SPI_COMMAND_TOGGLE_SS_N);
 4001d28:	00800084 	movi	r2,2
 4001d2c:	d8800215 	stw	r2,8(sp)
 4001d30:	e0bffe44 	addi	r2,fp,-7
 4001d34:	d8800115 	stw	r2,4(sp)
 4001d38:	00800044 	movi	r2,1
 4001d3c:	d8800015 	stw	r2,0(sp)
 4001d40:	000f883a 	mov	r7,zero
 4001d44:	000d883a 	mov	r6,zero
 4001d48:	000b883a 	mov	r5,zero
 4001d4c:	01028034 	movhi	r4,2560
 4001d50:	21040804 	addi	r4,r4,4128
 4001d54:	401119c0 	call	401119c <alt_avalon_spi_command>
 4001d58:	e0bffc15 	stw	r2,-16(fp)

    if (result != sizeof(low_byte)){
 4001d5c:	e0bffc17 	ldw	r2,-16(fp)
 4001d60:	10800060 	cmpeqi	r2,r2,1
 4001d64:	1000041e 	bne	r2,zero,4001d78 <touch_isr+0x100>
        printf(("[TOUCH] failed to get x\n row39"));
 4001d68:	01010074 	movhi	r4,1025
 4001d6c:	21136204 	addi	r4,r4,19848
 4001d70:	400218c0 	call	400218c <printf>
        return;
 4001d74:	00007f06 	br	4001f74 <touch_isr+0x2fc>
    }

    ResponseX = (high_byte << 8) | low_byte;
 4001d78:	e0bffe03 	ldbu	r2,-8(fp)
 4001d7c:	10803fcc 	andi	r2,r2,255
 4001d80:	1004923a 	slli	r2,r2,8
 4001d84:	1007883a 	mov	r3,r2
 4001d88:	e0bffe43 	ldbu	r2,-7(fp)
 4001d8c:	10803fcc 	andi	r2,r2,255
 4001d90:	1884b03a 	or	r2,r3,r2
 4001d94:	e0bffd0d 	sth	r2,-12(fp)

    // y
    result = alt_avalon_spi_command(TOUCH_PANEL_SPI_BASE, 0, sizeof(CommandGetY), &CommandGetY, 0, 0, ALT_AVALON_SPI_COMMAND_MERGE);
 4001d98:	00800044 	movi	r2,1
 4001d9c:	d8800215 	stw	r2,8(sp)
 4001da0:	d8000115 	stw	zero,4(sp)
 4001da4:	d8000015 	stw	zero,0(sp)
 4001da8:	d1e00084 	addi	r7,gp,-32766
 4001dac:	01800044 	movi	r6,1
 4001db0:	000b883a 	mov	r5,zero
 4001db4:	01028034 	movhi	r4,2560
 4001db8:	21040804 	addi	r4,r4,4128
 4001dbc:	401119c0 	call	401119c <alt_avalon_spi_command>
 4001dc0:	e0bffc15 	stw	r2,-16(fp)
    result = alt_avalon_spi_command(TOUCH_PANEL_SPI_BASE, 0, 0, 0, sizeof(high_byte), (alt_u8*)&high_byte, ALT_AVALON_SPI_COMMAND_MERGE);
 4001dc4:	00800044 	movi	r2,1
 4001dc8:	d8800215 	stw	r2,8(sp)
 4001dcc:	e0bffe04 	addi	r2,fp,-8
 4001dd0:	d8800115 	stw	r2,4(sp)
 4001dd4:	00800044 	movi	r2,1
 4001dd8:	d8800015 	stw	r2,0(sp)
 4001ddc:	000f883a 	mov	r7,zero
 4001de0:	000d883a 	mov	r6,zero
 4001de4:	000b883a 	mov	r5,zero
 4001de8:	01028034 	movhi	r4,2560
 4001dec:	21040804 	addi	r4,r4,4128
 4001df0:	401119c0 	call	401119c <alt_avalon_spi_command>
 4001df4:	e0bffc15 	stw	r2,-16(fp)

    if (result != sizeof(high_byte)){
 4001df8:	e0bffc17 	ldw	r2,-16(fp)
 4001dfc:	10800060 	cmpeqi	r2,r2,1
 4001e00:	1000041e 	bne	r2,zero,4001e14 <touch_isr+0x19c>
        printf(("[TOUCH] failed to get x\n row50"));
 4001e04:	01010074 	movhi	r4,1025
 4001e08:	21136a04 	addi	r4,r4,19880
 4001e0c:	400218c0 	call	400218c <printf>
        return;
 4001e10:	00005806 	br	4001f74 <touch_isr+0x2fc>
    }

    result = alt_avalon_spi_command(TOUCH_PANEL_SPI_BASE, 0, 0, 0, sizeof(low_byte), (alt_u8*)&low_byte,ALT_AVALON_SPI_COMMAND_TOGGLE_SS_N);
 4001e14:	00800084 	movi	r2,2
 4001e18:	d8800215 	stw	r2,8(sp)
 4001e1c:	e0bffe44 	addi	r2,fp,-7
 4001e20:	d8800115 	stw	r2,4(sp)
 4001e24:	00800044 	movi	r2,1
 4001e28:	d8800015 	stw	r2,0(sp)
 4001e2c:	000f883a 	mov	r7,zero
 4001e30:	000d883a 	mov	r6,zero
 4001e34:	000b883a 	mov	r5,zero
 4001e38:	01028034 	movhi	r4,2560
 4001e3c:	21040804 	addi	r4,r4,4128
 4001e40:	401119c0 	call	401119c <alt_avalon_spi_command>
 4001e44:	e0bffc15 	stw	r2,-16(fp)

    if (result != sizeof(low_byte)){
 4001e48:	e0bffc17 	ldw	r2,-16(fp)
 4001e4c:	10800060 	cmpeqi	r2,r2,1
 4001e50:	1000041e 	bne	r2,zero,4001e64 <touch_isr+0x1ec>
        printf(("[TOUCH] failed to get x\n row57"));
 4001e54:	01010074 	movhi	r4,1025
 4001e58:	21137204 	addi	r4,r4,19912
 4001e5c:	400218c0 	call	400218c <printf>
        return;
 4001e60:	00004406 	br	4001f74 <touch_isr+0x2fc>
    }


    ResponseY = (high_byte << 8) | low_byte;
 4001e64:	e0bffe03 	ldbu	r2,-8(fp)
 4001e68:	10803fcc 	andi	r2,r2,255
 4001e6c:	1004923a 	slli	r2,r2,8
 4001e70:	1007883a 	mov	r3,r2
 4001e74:	e0bffe43 	ldbu	r2,-7(fp)
 4001e78:	10803fcc 	andi	r2,r2,255
 4001e7c:	1884b03a 	or	r2,r3,r2
 4001e80:	e0bffd8d 	sth	r2,-10(fp)


    xy->x_coord = (ResponseX >> 3 ) & 0xFFF;  // 12 bits
 4001e84:	e0bffd0b 	ldhu	r2,-12(fp)
 4001e88:	10bfffcc 	andi	r2,r2,65535
 4001e8c:	1004d0fa 	srli	r2,r2,3
 4001e90:	1083ffcc 	andi	r2,r2,4095
 4001e94:	1007883a 	mov	r3,r2
 4001e98:	e0bffb17 	ldw	r2,-20(fp)
 4001e9c:	10c0000d 	sth	r3,0(r2)
    xy->y_coord = (ResponseY >> 3 ) & 0xFFF;  // 12 bits
 4001ea0:	e0bffd8b 	ldhu	r2,-10(fp)
 4001ea4:	10bfffcc 	andi	r2,r2,65535
 4001ea8:	1004d0fa 	srli	r2,r2,3
 4001eac:	1083ffcc 	andi	r2,r2,4095
 4001eb0:	1007883a 	mov	r3,r2
 4001eb4:	e0bffb17 	ldw	r2,-20(fp)
 4001eb8:	10c0008d 	sth	r3,2(r2)

    if((xy->x_coord == 0 || xy->y_coord == 0) || (alt_nticks() < xy->next_active_time) ){
 4001ebc:	e0bffb17 	ldw	r2,-20(fp)
 4001ec0:	1080000b 	ldhu	r2,0(r2)
 4001ec4:	10bfffcc 	andi	r2,r2,65535
 4001ec8:	10000826 	beq	r2,zero,4001eec <touch_isr+0x274>
 4001ecc:	e0bffb17 	ldw	r2,-20(fp)
 4001ed0:	1080008b 	ldhu	r2,2(r2)
 4001ed4:	10bfffcc 	andi	r2,r2,65535
 4001ed8:	10000426 	beq	r2,zero,4001eec <touch_isr+0x274>
 * alt_nticks() returns the elapsed number of system clock ticks since reset.
 */

static ALT_INLINE alt_u32 ALT_ALWAYS_INLINE alt_nticks (void)
{
  return _alt_nticks;
 4001edc:	d0e02217 	ldw	r3,-32632(gp)
 4001ee0:	e0bffb17 	ldw	r2,-20(fp)
 4001ee4:	10800217 	ldw	r2,8(r2)
 4001ee8:	1880032e 	bgeu	r3,r2,4001ef8 <touch_isr+0x280>
    	xy->enable_xy = 0;
 4001eec:	e0bffb17 	ldw	r2,-20(fp)
 4001ef0:	10000105 	stb	zero,4(r2)
 4001ef4:	00000906 	br	4001f1c <touch_isr+0x2a4>
    }else{
    	xy->enable_xy = 1;
 4001ef8:	e0bffb17 	ldw	r2,-20(fp)
 4001efc:	00c00044 	movi	r3,1
 4001f00:	10c00105 	stb	r3,4(r2)
 4001f04:	d0e02217 	ldw	r3,-32632(gp)
 * Obtain the system clock rate in ticks/s. 
 */

static ALT_INLINE alt_u32 ALT_ALWAYS_INLINE alt_ticks_per_second (void)
{
  return _alt_tick_rate;
 4001f08:	d0a02117 	ldw	r2,-32636(gp)
    	xy->next_active_time = alt_nticks() + ACTIVE_DELAY_TIME;
 4001f0c:	1004d0ba 	srli	r2,r2,2
 4001f10:	1887883a 	add	r3,r3,r2
 4001f14:	e0bffb17 	ldw	r2,-20(fp)
 4001f18:	10c00215 	stw	r3,8(r2)
    }
    printf("X Koordinate: %d Y Koordinate: %d\n", xy->x_coord,xy->y_coord);
 4001f1c:	e0bffb17 	ldw	r2,-20(fp)
 4001f20:	1080000b 	ldhu	r2,0(r2)
 4001f24:	10ffffcc 	andi	r3,r2,65535
 4001f28:	e0bffb17 	ldw	r2,-20(fp)
 4001f2c:	1080008b 	ldhu	r2,2(r2)
 4001f30:	10bfffcc 	andi	r2,r2,65535
 4001f34:	100d883a 	mov	r6,r2
 4001f38:	180b883a 	mov	r5,r3
 4001f3c:	01010074 	movhi	r4,1025
 4001f40:	21137a04 	addi	r4,r4,19944
 4001f44:	400218c0 	call	400218c <printf>


	 //  INSERT CODE 6. Then reset that register to 0
	IOWR_ALTERA_AVALON_PIO_EDGE_CAP(TOUCH_PANEL_PEN_IRQ_N_BASE,0x0);
 4001f48:	0007883a 	mov	r3,zero
 4001f4c:	00828034 	movhi	r2,2560
 4001f50:	10842704 	addi	r2,r2,4252
 4001f54:	10c00035 	stwio	r3,0(r2)

    //  Reset IRQ Mask
    IOWR_ALTERA_AVALON_PIO_IRQ_MASK(TOUCH_PANEL_PEN_IRQ_N_BASE, 0x01);
 4001f58:	00c00044 	movi	r3,1
 4001f5c:	00828034 	movhi	r2,2560
 4001f60:	10842604 	addi	r2,r2,4248
 4001f64:	10c00035 	stwio	r3,0(r2)

    alt_ic_irq_enable(TOUCH_PANEL_PEN_IRQ_N_IRQ_INTERRUPT_CONTROLLER_ID,TOUCH_PANEL_PEN_IRQ_N_IRQ);
 4001f68:	014000c4 	movi	r5,3
 4001f6c:	0009883a 	mov	r4,zero
 4001f70:	400ecd40 	call	400ecd4 <alt_ic_irq_enable>

    //xy->next_active_time = alt_nticks() + ACTIVE_DELAY_TIME;
}
 4001f74:	e037883a 	mov	sp,fp
 4001f78:	dfc00117 	ldw	ra,4(sp)
 4001f7c:	df000017 	ldw	fp,0(sp)
 4001f80:	dec00204 	addi	sp,sp,8
 4001f84:	f800283a 	ret

04001f88 <touch_init>:
 * Purpose :
 * Return  : none
 *--------------------------------------------------*/

void touch_init(void* context)
{
 4001f88:	defffc04 	addi	sp,sp,-16
 4001f8c:	dfc00315 	stw	ra,12(sp)
 4001f90:	df000215 	stw	fp,8(sp)
 4001f94:	df000204 	addi	fp,sp,8
 4001f98:	e13fff15 	stw	r4,-4(fp)
	//
	//  - Enable touch pen irg.
	IOWR_ALTERA_AVALON_PIO_IRQ_MASK(TOUCH_PANEL_PEN_IRQ_N_BASE, 0x01);
 4001f9c:	00c00044 	movi	r3,1
 4001fa0:	00828034 	movhi	r2,2560
 4001fa4:	10842604 	addi	r2,r2,4248
 4001fa8:	10c00035 	stwio	r3,0(r2)

	// Reset the edge capture register.
	IOWR_ALTERA_AVALON_PIO_EDGE_CAP(TOUCH_PANEL_PEN_IRQ_N_BASE, 0x0);
 4001fac:	0007883a 	mov	r3,zero
 4001fb0:	00828034 	movhi	r2,2560
 4001fb4:	10842704 	addi	r2,r2,4252
 4001fb8:	10c00035 	stwio	r3,0(r2)

	//  Register the ISR:
	alt_ic_isr_register(TOUCH_PANEL_PEN_IRQ_N_IRQ_INTERRUPT_CONTROLLER_ID, TOUCH_PANEL_PEN_IRQ_N_IRQ, touch_isr, context, 0x0);
 4001fbc:	d8000015 	stw	zero,0(sp)
 4001fc0:	e1ffff17 	ldw	r7,-4(fp)
 4001fc4:	01810034 	movhi	r6,1024
 4001fc8:	31871e04 	addi	r6,r6,7288
 4001fcc:	014000c4 	movi	r5,3
 4001fd0:	0009883a 	mov	r4,zero
 4001fd4:	400ec840 	call	400ec84 <alt_ic_isr_register>

}
 4001fd8:	0001883a 	nop
 4001fdc:	e037883a 	mov	sp,fp
 4001fe0:	dfc00117 	ldw	ra,4(sp)
 4001fe4:	df000017 	ldw	fp,0(sp)
 4001fe8:	dec00204 	addi	sp,sp,8
 4001fec:	f800283a 	ret

04001ff0 <get_xy>:

void get_xy (void * context)
{
 4001ff0:	defffe04 	addi	sp,sp,-8
 4001ff4:	df000115 	stw	fp,4(sp)
 4001ff8:	df000104 	addi	fp,sp,4
 4001ffc:	e13fff15 	stw	r4,-4(fp)





}
 4002000:	0001883a 	nop
 4002004:	e037883a 	mov	sp,fp
 4002008:	df000017 	ldw	fp,0(sp)
 400200c:	dec00104 	addi	sp,sp,4
 4002010:	f800283a 	ret

04002014 <memcpy>:
 4002014:	defffd04 	addi	sp,sp,-12
 4002018:	dfc00215 	stw	ra,8(sp)
 400201c:	dc400115 	stw	r17,4(sp)
 4002020:	dc000015 	stw	r16,0(sp)
 4002024:	00c003c4 	movi	r3,15
 4002028:	2005883a 	mov	r2,r4
 400202c:	1980452e 	bgeu	r3,r6,4002144 <memcpy+0x130>
 4002030:	2906b03a 	or	r3,r5,r4
 4002034:	18c000cc 	andi	r3,r3,3
 4002038:	1800441e 	bne	r3,zero,400214c <memcpy+0x138>
 400203c:	347ffc04 	addi	r17,r6,-16
 4002040:	8822d13a 	srli	r17,r17,4
 4002044:	28c00104 	addi	r3,r5,4
 4002048:	23400104 	addi	r13,r4,4
 400204c:	8820913a 	slli	r16,r17,4
 4002050:	2b000204 	addi	r12,r5,8
 4002054:	22c00204 	addi	r11,r4,8
 4002058:	84000504 	addi	r16,r16,20
 400205c:	2a800304 	addi	r10,r5,12
 4002060:	22400304 	addi	r9,r4,12
 4002064:	2c21883a 	add	r16,r5,r16
 4002068:	2811883a 	mov	r8,r5
 400206c:	200f883a 	mov	r7,r4
 4002070:	41000017 	ldw	r4,0(r8)
 4002074:	1fc00017 	ldw	ra,0(r3)
 4002078:	63c00017 	ldw	r15,0(r12)
 400207c:	39000015 	stw	r4,0(r7)
 4002080:	53800017 	ldw	r14,0(r10)
 4002084:	6fc00015 	stw	ra,0(r13)
 4002088:	5bc00015 	stw	r15,0(r11)
 400208c:	4b800015 	stw	r14,0(r9)
 4002090:	18c00404 	addi	r3,r3,16
 4002094:	39c00404 	addi	r7,r7,16
 4002098:	42000404 	addi	r8,r8,16
 400209c:	6b400404 	addi	r13,r13,16
 40020a0:	63000404 	addi	r12,r12,16
 40020a4:	5ac00404 	addi	r11,r11,16
 40020a8:	52800404 	addi	r10,r10,16
 40020ac:	4a400404 	addi	r9,r9,16
 40020b0:	1c3fef1e 	bne	r3,r16,4002070 <__reset+0xfa812070>
 40020b4:	89c00044 	addi	r7,r17,1
 40020b8:	380e913a 	slli	r7,r7,4
 40020bc:	310003cc 	andi	r4,r6,15
 40020c0:	02c000c4 	movi	r11,3
 40020c4:	11c7883a 	add	r3,r2,r7
 40020c8:	29cb883a 	add	r5,r5,r7
 40020cc:	5900212e 	bgeu	r11,r4,4002154 <memcpy+0x140>
 40020d0:	1813883a 	mov	r9,r3
 40020d4:	2811883a 	mov	r8,r5
 40020d8:	200f883a 	mov	r7,r4
 40020dc:	42800017 	ldw	r10,0(r8)
 40020e0:	4a400104 	addi	r9,r9,4
 40020e4:	39ffff04 	addi	r7,r7,-4
 40020e8:	4abfff15 	stw	r10,-4(r9)
 40020ec:	42000104 	addi	r8,r8,4
 40020f0:	59fffa36 	bltu	r11,r7,40020dc <__reset+0xfa8120dc>
 40020f4:	213fff04 	addi	r4,r4,-4
 40020f8:	2008d0ba 	srli	r4,r4,2
 40020fc:	318000cc 	andi	r6,r6,3
 4002100:	21000044 	addi	r4,r4,1
 4002104:	2109883a 	add	r4,r4,r4
 4002108:	2109883a 	add	r4,r4,r4
 400210c:	1907883a 	add	r3,r3,r4
 4002110:	290b883a 	add	r5,r5,r4
 4002114:	30000626 	beq	r6,zero,4002130 <memcpy+0x11c>
 4002118:	198d883a 	add	r6,r3,r6
 400211c:	29c00003 	ldbu	r7,0(r5)
 4002120:	18c00044 	addi	r3,r3,1
 4002124:	29400044 	addi	r5,r5,1
 4002128:	19ffffc5 	stb	r7,-1(r3)
 400212c:	19bffb1e 	bne	r3,r6,400211c <__reset+0xfa81211c>
 4002130:	dfc00217 	ldw	ra,8(sp)
 4002134:	dc400117 	ldw	r17,4(sp)
 4002138:	dc000017 	ldw	r16,0(sp)
 400213c:	dec00304 	addi	sp,sp,12
 4002140:	f800283a 	ret
 4002144:	2007883a 	mov	r3,r4
 4002148:	003ff206 	br	4002114 <__reset+0xfa812114>
 400214c:	2007883a 	mov	r3,r4
 4002150:	003ff106 	br	4002118 <__reset+0xfa812118>
 4002154:	200d883a 	mov	r6,r4
 4002158:	003fee06 	br	4002114 <__reset+0xfa812114>

0400215c <_printf_r>:
 400215c:	defffd04 	addi	sp,sp,-12
 4002160:	2805883a 	mov	r2,r5
 4002164:	dfc00015 	stw	ra,0(sp)
 4002168:	d9800115 	stw	r6,4(sp)
 400216c:	d9c00215 	stw	r7,8(sp)
 4002170:	21400217 	ldw	r5,8(r4)
 4002174:	d9c00104 	addi	r7,sp,4
 4002178:	100d883a 	mov	r6,r2
 400217c:	40023340 	call	4002334 <___vfprintf_internal_r>
 4002180:	dfc00017 	ldw	ra,0(sp)
 4002184:	dec00304 	addi	sp,sp,12
 4002188:	f800283a 	ret

0400218c <printf>:
 400218c:	defffc04 	addi	sp,sp,-16
 4002190:	dfc00015 	stw	ra,0(sp)
 4002194:	d9400115 	stw	r5,4(sp)
 4002198:	d9800215 	stw	r6,8(sp)
 400219c:	d9c00315 	stw	r7,12(sp)
 40021a0:	00810074 	movhi	r2,1025
 40021a4:	109c0f04 	addi	r2,r2,28732
 40021a8:	10800017 	ldw	r2,0(r2)
 40021ac:	200b883a 	mov	r5,r4
 40021b0:	d9800104 	addi	r6,sp,4
 40021b4:	11000217 	ldw	r4,8(r2)
 40021b8:	400452c0 	call	400452c <__vfprintf_internal>
 40021bc:	dfc00017 	ldw	ra,0(sp)
 40021c0:	dec00404 	addi	sp,sp,16
 40021c4:	f800283a 	ret

040021c8 <_puts_r>:
 40021c8:	defff604 	addi	sp,sp,-40
 40021cc:	dc000715 	stw	r16,28(sp)
 40021d0:	2021883a 	mov	r16,r4
 40021d4:	2809883a 	mov	r4,r5
 40021d8:	dc400815 	stw	r17,32(sp)
 40021dc:	dfc00915 	stw	ra,36(sp)
 40021e0:	2823883a 	mov	r17,r5
 40021e4:	400229c0 	call	400229c <strlen>
 40021e8:	10c00044 	addi	r3,r2,1
 40021ec:	d8800115 	stw	r2,4(sp)
 40021f0:	00810074 	movhi	r2,1025
 40021f4:	10938304 	addi	r2,r2,19980
 40021f8:	d8800215 	stw	r2,8(sp)
 40021fc:	00800044 	movi	r2,1
 4002200:	d8800315 	stw	r2,12(sp)
 4002204:	00800084 	movi	r2,2
 4002208:	dc400015 	stw	r17,0(sp)
 400220c:	d8c00615 	stw	r3,24(sp)
 4002210:	dec00415 	stw	sp,16(sp)
 4002214:	d8800515 	stw	r2,20(sp)
 4002218:	80000226 	beq	r16,zero,4002224 <_puts_r+0x5c>
 400221c:	80800e17 	ldw	r2,56(r16)
 4002220:	10001426 	beq	r2,zero,4002274 <_puts_r+0xac>
 4002224:	81400217 	ldw	r5,8(r16)
 4002228:	2880030b 	ldhu	r2,12(r5)
 400222c:	10c8000c 	andi	r3,r2,8192
 4002230:	1800061e 	bne	r3,zero,400224c <_puts_r+0x84>
 4002234:	29001917 	ldw	r4,100(r5)
 4002238:	00f7ffc4 	movi	r3,-8193
 400223c:	10880014 	ori	r2,r2,8192
 4002240:	20c6703a 	and	r3,r4,r3
 4002244:	2880030d 	sth	r2,12(r5)
 4002248:	28c01915 	stw	r3,100(r5)
 400224c:	d9800404 	addi	r6,sp,16
 4002250:	8009883a 	mov	r4,r16
 4002254:	4006a5c0 	call	4006a5c <__sfvwrite_r>
 4002258:	1000091e 	bne	r2,zero,4002280 <_puts_r+0xb8>
 400225c:	00800284 	movi	r2,10
 4002260:	dfc00917 	ldw	ra,36(sp)
 4002264:	dc400817 	ldw	r17,32(sp)
 4002268:	dc000717 	ldw	r16,28(sp)
 400226c:	dec00a04 	addi	sp,sp,40
 4002270:	f800283a 	ret
 4002274:	8009883a 	mov	r4,r16
 4002278:	40065d80 	call	40065d8 <__sinit>
 400227c:	003fe906 	br	4002224 <__reset+0xfa812224>
 4002280:	00bfffc4 	movi	r2,-1
 4002284:	003ff606 	br	4002260 <__reset+0xfa812260>

04002288 <puts>:
 4002288:	00810074 	movhi	r2,1025
 400228c:	109c0f04 	addi	r2,r2,28732
 4002290:	200b883a 	mov	r5,r4
 4002294:	11000017 	ldw	r4,0(r2)
 4002298:	40021c81 	jmpi	40021c8 <_puts_r>

0400229c <strlen>:
 400229c:	208000cc 	andi	r2,r4,3
 40022a0:	10002026 	beq	r2,zero,4002324 <strlen+0x88>
 40022a4:	20800007 	ldb	r2,0(r4)
 40022a8:	10002026 	beq	r2,zero,400232c <strlen+0x90>
 40022ac:	2005883a 	mov	r2,r4
 40022b0:	00000206 	br	40022bc <strlen+0x20>
 40022b4:	10c00007 	ldb	r3,0(r2)
 40022b8:	18001826 	beq	r3,zero,400231c <strlen+0x80>
 40022bc:	10800044 	addi	r2,r2,1
 40022c0:	10c000cc 	andi	r3,r2,3
 40022c4:	183ffb1e 	bne	r3,zero,40022b4 <__reset+0xfa8122b4>
 40022c8:	10c00017 	ldw	r3,0(r2)
 40022cc:	01ffbff4 	movhi	r7,65279
 40022d0:	39ffbfc4 	addi	r7,r7,-257
 40022d4:	00ca303a 	nor	r5,zero,r3
 40022d8:	01a02074 	movhi	r6,32897
 40022dc:	19c7883a 	add	r3,r3,r7
 40022e0:	31a02004 	addi	r6,r6,-32640
 40022e4:	1946703a 	and	r3,r3,r5
 40022e8:	1986703a 	and	r3,r3,r6
 40022ec:	1800091e 	bne	r3,zero,4002314 <strlen+0x78>
 40022f0:	10800104 	addi	r2,r2,4
 40022f4:	10c00017 	ldw	r3,0(r2)
 40022f8:	19cb883a 	add	r5,r3,r7
 40022fc:	00c6303a 	nor	r3,zero,r3
 4002300:	28c6703a 	and	r3,r5,r3
 4002304:	1986703a 	and	r3,r3,r6
 4002308:	183ff926 	beq	r3,zero,40022f0 <__reset+0xfa8122f0>
 400230c:	00000106 	br	4002314 <strlen+0x78>
 4002310:	10800044 	addi	r2,r2,1
 4002314:	10c00007 	ldb	r3,0(r2)
 4002318:	183ffd1e 	bne	r3,zero,4002310 <__reset+0xfa812310>
 400231c:	1105c83a 	sub	r2,r2,r4
 4002320:	f800283a 	ret
 4002324:	2005883a 	mov	r2,r4
 4002328:	003fe706 	br	40022c8 <__reset+0xfa8122c8>
 400232c:	0005883a 	mov	r2,zero
 4002330:	f800283a 	ret

04002334 <___vfprintf_internal_r>:
 4002334:	deffb804 	addi	sp,sp,-288
 4002338:	dfc04715 	stw	ra,284(sp)
 400233c:	ddc04515 	stw	r23,276(sp)
 4002340:	dd404315 	stw	r21,268(sp)
 4002344:	d9002c15 	stw	r4,176(sp)
 4002348:	282f883a 	mov	r23,r5
 400234c:	302b883a 	mov	r21,r6
 4002350:	d9c02d15 	stw	r7,180(sp)
 4002354:	df004615 	stw	fp,280(sp)
 4002358:	dd804415 	stw	r22,272(sp)
 400235c:	dd004215 	stw	r20,264(sp)
 4002360:	dcc04115 	stw	r19,260(sp)
 4002364:	dc804015 	stw	r18,256(sp)
 4002368:	dc403f15 	stw	r17,252(sp)
 400236c:	dc003e15 	stw	r16,248(sp)
 4002370:	400714c0 	call	400714c <_localeconv_r>
 4002374:	10800017 	ldw	r2,0(r2)
 4002378:	1009883a 	mov	r4,r2
 400237c:	d8803415 	stw	r2,208(sp)
 4002380:	400229c0 	call	400229c <strlen>
 4002384:	d8803715 	stw	r2,220(sp)
 4002388:	d8802c17 	ldw	r2,176(sp)
 400238c:	10000226 	beq	r2,zero,4002398 <___vfprintf_internal_r+0x64>
 4002390:	10800e17 	ldw	r2,56(r2)
 4002394:	1000f926 	beq	r2,zero,400277c <___vfprintf_internal_r+0x448>
 4002398:	b880030b 	ldhu	r2,12(r23)
 400239c:	10c8000c 	andi	r3,r2,8192
 40023a0:	1800061e 	bne	r3,zero,40023bc <___vfprintf_internal_r+0x88>
 40023a4:	b9001917 	ldw	r4,100(r23)
 40023a8:	00f7ffc4 	movi	r3,-8193
 40023ac:	10880014 	ori	r2,r2,8192
 40023b0:	20c6703a 	and	r3,r4,r3
 40023b4:	b880030d 	sth	r2,12(r23)
 40023b8:	b8c01915 	stw	r3,100(r23)
 40023bc:	10c0020c 	andi	r3,r2,8
 40023c0:	1800c126 	beq	r3,zero,40026c8 <___vfprintf_internal_r+0x394>
 40023c4:	b8c00417 	ldw	r3,16(r23)
 40023c8:	1800bf26 	beq	r3,zero,40026c8 <___vfprintf_internal_r+0x394>
 40023cc:	1080068c 	andi	r2,r2,26
 40023d0:	00c00284 	movi	r3,10
 40023d4:	10c0c426 	beq	r2,r3,40026e8 <___vfprintf_internal_r+0x3b4>
 40023d8:	d8c00404 	addi	r3,sp,16
 40023dc:	05010074 	movhi	r20,1025
 40023e0:	d9001e04 	addi	r4,sp,120
 40023e4:	a5139484 	addi	r20,r20,20050
 40023e8:	d8c01e15 	stw	r3,120(sp)
 40023ec:	d8002015 	stw	zero,128(sp)
 40023f0:	d8001f15 	stw	zero,124(sp)
 40023f4:	d8003315 	stw	zero,204(sp)
 40023f8:	d8003615 	stw	zero,216(sp)
 40023fc:	d8003815 	stw	zero,224(sp)
 4002400:	1811883a 	mov	r8,r3
 4002404:	d8003915 	stw	zero,228(sp)
 4002408:	d8003a15 	stw	zero,232(sp)
 400240c:	d8002f15 	stw	zero,188(sp)
 4002410:	d9002815 	stw	r4,160(sp)
 4002414:	a8800007 	ldb	r2,0(r21)
 4002418:	10027b26 	beq	r2,zero,4002e08 <___vfprintf_internal_r+0xad4>
 400241c:	00c00944 	movi	r3,37
 4002420:	a821883a 	mov	r16,r21
 4002424:	10c0021e 	bne	r2,r3,4002430 <___vfprintf_internal_r+0xfc>
 4002428:	00001406 	br	400247c <___vfprintf_internal_r+0x148>
 400242c:	10c00326 	beq	r2,r3,400243c <___vfprintf_internal_r+0x108>
 4002430:	84000044 	addi	r16,r16,1
 4002434:	80800007 	ldb	r2,0(r16)
 4002438:	103ffc1e 	bne	r2,zero,400242c <__reset+0xfa81242c>
 400243c:	8563c83a 	sub	r17,r16,r21
 4002440:	88000e26 	beq	r17,zero,400247c <___vfprintf_internal_r+0x148>
 4002444:	d8c02017 	ldw	r3,128(sp)
 4002448:	d8801f17 	ldw	r2,124(sp)
 400244c:	45400015 	stw	r21,0(r8)
 4002450:	1c47883a 	add	r3,r3,r17
 4002454:	10800044 	addi	r2,r2,1
 4002458:	d8c02015 	stw	r3,128(sp)
 400245c:	44400115 	stw	r17,4(r8)
 4002460:	d8801f15 	stw	r2,124(sp)
 4002464:	00c001c4 	movi	r3,7
 4002468:	1880a716 	blt	r3,r2,4002708 <___vfprintf_internal_r+0x3d4>
 400246c:	42000204 	addi	r8,r8,8
 4002470:	d9402f17 	ldw	r5,188(sp)
 4002474:	2c4b883a 	add	r5,r5,r17
 4002478:	d9402f15 	stw	r5,188(sp)
 400247c:	80800007 	ldb	r2,0(r16)
 4002480:	1000a826 	beq	r2,zero,4002724 <___vfprintf_internal_r+0x3f0>
 4002484:	84400047 	ldb	r17,1(r16)
 4002488:	00bfffc4 	movi	r2,-1
 400248c:	85400044 	addi	r21,r16,1
 4002490:	d8002785 	stb	zero,158(sp)
 4002494:	0007883a 	mov	r3,zero
 4002498:	000f883a 	mov	r7,zero
 400249c:	d8802915 	stw	r2,164(sp)
 40024a0:	d8003115 	stw	zero,196(sp)
 40024a4:	0025883a 	mov	r18,zero
 40024a8:	01401604 	movi	r5,88
 40024ac:	01800244 	movi	r6,9
 40024b0:	02800a84 	movi	r10,42
 40024b4:	02401b04 	movi	r9,108
 40024b8:	ad400044 	addi	r21,r21,1
 40024bc:	88bff804 	addi	r2,r17,-32
 40024c0:	28830436 	bltu	r5,r2,40030d4 <___vfprintf_internal_r+0xda0>
 40024c4:	100490ba 	slli	r2,r2,2
 40024c8:	01010034 	movhi	r4,1024
 40024cc:	21093704 	addi	r4,r4,9436
 40024d0:	1105883a 	add	r2,r2,r4
 40024d4:	10800017 	ldw	r2,0(r2)
 40024d8:	1000683a 	jmp	r2
 40024dc:	04002ff4 	movhi	r16,191
 40024e0:	040030d4 	movui	r16,195
 40024e4:	040030d4 	movui	r16,195
 40024e8:	04003014 	movui	r16,192
 40024ec:	040030d4 	movui	r16,195
 40024f0:	040030d4 	movui	r16,195
 40024f4:	040030d4 	movui	r16,195
 40024f8:	040030d4 	movui	r16,195
 40024fc:	040030d4 	movui	r16,195
 4002500:	040030d4 	movui	r16,195
 4002504:	04002788 	cmpgei	r16,zero,158
 4002508:	04002f30 	cmpltui	r16,zero,188
 400250c:	040030d4 	movui	r16,195
 4002510:	04002650 	cmplti	r16,zero,153
 4002514:	040027b0 	cmpltui	r16,zero,158
 4002518:	040030d4 	movui	r16,195
 400251c:	040027f0 	cmpltui	r16,zero,159
 4002520:	040027fc 	xorhi	r16,zero,159
 4002524:	040027fc 	xorhi	r16,zero,159
 4002528:	040027fc 	xorhi	r16,zero,159
 400252c:	040027fc 	xorhi	r16,zero,159
 4002530:	040027fc 	xorhi	r16,zero,159
 4002534:	040027fc 	xorhi	r16,zero,159
 4002538:	040027fc 	xorhi	r16,zero,159
 400253c:	040027fc 	xorhi	r16,zero,159
 4002540:	040027fc 	xorhi	r16,zero,159
 4002544:	040030d4 	movui	r16,195
 4002548:	040030d4 	movui	r16,195
 400254c:	040030d4 	movui	r16,195
 4002550:	040030d4 	movui	r16,195
 4002554:	040030d4 	movui	r16,195
 4002558:	040030d4 	movui	r16,195
 400255c:	040030d4 	movui	r16,195
 4002560:	040030d4 	movui	r16,195
 4002564:	040030d4 	movui	r16,195
 4002568:	040030d4 	movui	r16,195
 400256c:	04002830 	cmpltui	r16,zero,160
 4002570:	040028ec 	andhi	r16,zero,163
 4002574:	040030d4 	movui	r16,195
 4002578:	040028ec 	andhi	r16,zero,163
 400257c:	040030d4 	movui	r16,195
 4002580:	040030d4 	movui	r16,195
 4002584:	040030d4 	movui	r16,195
 4002588:	040030d4 	movui	r16,195
 400258c:	0400298c 	andi	r16,zero,166
 4002590:	040030d4 	movui	r16,195
 4002594:	040030d4 	movui	r16,195
 4002598:	04002998 	cmpnei	r16,zero,166
 400259c:	040030d4 	movui	r16,195
 40025a0:	040030d4 	movui	r16,195
 40025a4:	040030d4 	movui	r16,195
 40025a8:	040030d4 	movui	r16,195
 40025ac:	040030d4 	movui	r16,195
 40025b0:	04002e10 	cmplti	r16,zero,184
 40025b4:	040030d4 	movui	r16,195
 40025b8:	040030d4 	movui	r16,195
 40025bc:	04002e70 	cmpltui	r16,zero,185
 40025c0:	040030d4 	movui	r16,195
 40025c4:	040030d4 	movui	r16,195
 40025c8:	040030d4 	movui	r16,195
 40025cc:	040030d4 	movui	r16,195
 40025d0:	040030d4 	movui	r16,195
 40025d4:	040030d4 	movui	r16,195
 40025d8:	040030d4 	movui	r16,195
 40025dc:	040030d4 	movui	r16,195
 40025e0:	040030d4 	movui	r16,195
 40025e4:	040030d4 	movui	r16,195
 40025e8:	04003080 	call	400308 <__alt_mem_dram_cntrl-0x3bffcf8>
 40025ec:	04003020 	cmpeqi	r16,zero,192
 40025f0:	040028ec 	andhi	r16,zero,163
 40025f4:	040028ec 	andhi	r16,zero,163
 40025f8:	040028ec 	andhi	r16,zero,163
 40025fc:	04003030 	cmpltui	r16,zero,192
 4002600:	04003020 	cmpeqi	r16,zero,192
 4002604:	040030d4 	movui	r16,195
 4002608:	040030d4 	movui	r16,195
 400260c:	0400303c 	xorhi	r16,zero,192
 4002610:	040030d4 	movui	r16,195
 4002614:	0400304c 	andi	r16,zero,193
 4002618:	04002f20 	cmpeqi	r16,zero,188
 400261c:	0400265c 	xori	r16,zero,153
 4002620:	04002f40 	call	4002f4 <__alt_mem_dram_cntrl-0x3bffd0c>
 4002624:	040030d4 	movui	r16,195
 4002628:	04002f4c 	andi	r16,zero,189
 400262c:	040030d4 	movui	r16,195
 4002630:	04002fa8 	cmpgeui	r16,zero,190
 4002634:	040030d4 	movui	r16,195
 4002638:	040030d4 	movui	r16,195
 400263c:	04002fb8 	rdprs	r16,zero,190
 4002640:	d9003117 	ldw	r4,196(sp)
 4002644:	d8802d15 	stw	r2,180(sp)
 4002648:	0109c83a 	sub	r4,zero,r4
 400264c:	d9003115 	stw	r4,196(sp)
 4002650:	94800114 	ori	r18,r18,4
 4002654:	ac400007 	ldb	r17,0(r21)
 4002658:	003f9706 	br	40024b8 <__reset+0xfa8124b8>
 400265c:	00800c04 	movi	r2,48
 4002660:	d9002d17 	ldw	r4,180(sp)
 4002664:	d9402917 	ldw	r5,164(sp)
 4002668:	d8802705 	stb	r2,156(sp)
 400266c:	00801e04 	movi	r2,120
 4002670:	d8802745 	stb	r2,157(sp)
 4002674:	d8002785 	stb	zero,158(sp)
 4002678:	20c00104 	addi	r3,r4,4
 400267c:	24c00017 	ldw	r19,0(r4)
 4002680:	002d883a 	mov	r22,zero
 4002684:	90800094 	ori	r2,r18,2
 4002688:	28029a16 	blt	r5,zero,40030f4 <___vfprintf_internal_r+0xdc0>
 400268c:	00bfdfc4 	movi	r2,-129
 4002690:	90a4703a 	and	r18,r18,r2
 4002694:	d8c02d15 	stw	r3,180(sp)
 4002698:	94800094 	ori	r18,r18,2
 400269c:	9802871e 	bne	r19,zero,40030bc <___vfprintf_internal_r+0xd88>
 40026a0:	00810074 	movhi	r2,1025
 40026a4:	10938d04 	addi	r2,r2,20020
 40026a8:	d8803915 	stw	r2,228(sp)
 40026ac:	04401e04 	movi	r17,120
 40026b0:	d8802917 	ldw	r2,164(sp)
 40026b4:	0039883a 	mov	fp,zero
 40026b8:	1001e926 	beq	r2,zero,4002e60 <___vfprintf_internal_r+0xb2c>
 40026bc:	0027883a 	mov	r19,zero
 40026c0:	002d883a 	mov	r22,zero
 40026c4:	00020506 	br	4002edc <___vfprintf_internal_r+0xba8>
 40026c8:	d9002c17 	ldw	r4,176(sp)
 40026cc:	b80b883a 	mov	r5,r23
 40026d0:	40046040 	call	4004604 <__swsetup_r>
 40026d4:	1005ac1e 	bne	r2,zero,4003d88 <___vfprintf_internal_r+0x1a54>
 40026d8:	b880030b 	ldhu	r2,12(r23)
 40026dc:	00c00284 	movi	r3,10
 40026e0:	1080068c 	andi	r2,r2,26
 40026e4:	10ff3c1e 	bne	r2,r3,40023d8 <__reset+0xfa8123d8>
 40026e8:	b880038f 	ldh	r2,14(r23)
 40026ec:	103f3a16 	blt	r2,zero,40023d8 <__reset+0xfa8123d8>
 40026f0:	d9c02d17 	ldw	r7,180(sp)
 40026f4:	d9002c17 	ldw	r4,176(sp)
 40026f8:	a80d883a 	mov	r6,r21
 40026fc:	b80b883a 	mov	r5,r23
 4002700:	40045480 	call	4004548 <__sbprintf>
 4002704:	00001106 	br	400274c <___vfprintf_internal_r+0x418>
 4002708:	d9002c17 	ldw	r4,176(sp)
 400270c:	d9801e04 	addi	r6,sp,120
 4002710:	b80b883a 	mov	r5,r23
 4002714:	40097e80 	call	40097e8 <__sprint_r>
 4002718:	1000081e 	bne	r2,zero,400273c <___vfprintf_internal_r+0x408>
 400271c:	da000404 	addi	r8,sp,16
 4002720:	003f5306 	br	4002470 <__reset+0xfa812470>
 4002724:	d8802017 	ldw	r2,128(sp)
 4002728:	10000426 	beq	r2,zero,400273c <___vfprintf_internal_r+0x408>
 400272c:	d9002c17 	ldw	r4,176(sp)
 4002730:	d9801e04 	addi	r6,sp,120
 4002734:	b80b883a 	mov	r5,r23
 4002738:	40097e80 	call	40097e8 <__sprint_r>
 400273c:	b880030b 	ldhu	r2,12(r23)
 4002740:	1080100c 	andi	r2,r2,64
 4002744:	1005901e 	bne	r2,zero,4003d88 <___vfprintf_internal_r+0x1a54>
 4002748:	d8802f17 	ldw	r2,188(sp)
 400274c:	dfc04717 	ldw	ra,284(sp)
 4002750:	df004617 	ldw	fp,280(sp)
 4002754:	ddc04517 	ldw	r23,276(sp)
 4002758:	dd804417 	ldw	r22,272(sp)
 400275c:	dd404317 	ldw	r21,268(sp)
 4002760:	dd004217 	ldw	r20,264(sp)
 4002764:	dcc04117 	ldw	r19,260(sp)
 4002768:	dc804017 	ldw	r18,256(sp)
 400276c:	dc403f17 	ldw	r17,252(sp)
 4002770:	dc003e17 	ldw	r16,248(sp)
 4002774:	dec04804 	addi	sp,sp,288
 4002778:	f800283a 	ret
 400277c:	d9002c17 	ldw	r4,176(sp)
 4002780:	40065d80 	call	40065d8 <__sinit>
 4002784:	003f0406 	br	4002398 <__reset+0xfa812398>
 4002788:	d8802d17 	ldw	r2,180(sp)
 400278c:	d9002d17 	ldw	r4,180(sp)
 4002790:	10800017 	ldw	r2,0(r2)
 4002794:	d8803115 	stw	r2,196(sp)
 4002798:	20800104 	addi	r2,r4,4
 400279c:	d9003117 	ldw	r4,196(sp)
 40027a0:	203fa716 	blt	r4,zero,4002640 <__reset+0xfa812640>
 40027a4:	d8802d15 	stw	r2,180(sp)
 40027a8:	ac400007 	ldb	r17,0(r21)
 40027ac:	003f4206 	br	40024b8 <__reset+0xfa8124b8>
 40027b0:	ac400007 	ldb	r17,0(r21)
 40027b4:	aac00044 	addi	r11,r21,1
 40027b8:	8a872826 	beq	r17,r10,400445c <___vfprintf_internal_r+0x2128>
 40027bc:	88bff404 	addi	r2,r17,-48
 40027c0:	0009883a 	mov	r4,zero
 40027c4:	30867d36 	bltu	r6,r2,40041bc <___vfprintf_internal_r+0x1e88>
 40027c8:	5c400007 	ldb	r17,0(r11)
 40027cc:	210002a4 	muli	r4,r4,10
 40027d0:	5d400044 	addi	r21,r11,1
 40027d4:	a817883a 	mov	r11,r21
 40027d8:	2089883a 	add	r4,r4,r2
 40027dc:	88bff404 	addi	r2,r17,-48
 40027e0:	30bff92e 	bgeu	r6,r2,40027c8 <__reset+0xfa8127c8>
 40027e4:	2005c916 	blt	r4,zero,4003f0c <___vfprintf_internal_r+0x1bd8>
 40027e8:	d9002915 	stw	r4,164(sp)
 40027ec:	003f3306 	br	40024bc <__reset+0xfa8124bc>
 40027f0:	94802014 	ori	r18,r18,128
 40027f4:	ac400007 	ldb	r17,0(r21)
 40027f8:	003f2f06 	br	40024b8 <__reset+0xfa8124b8>
 40027fc:	a809883a 	mov	r4,r21
 4002800:	d8003115 	stw	zero,196(sp)
 4002804:	88bff404 	addi	r2,r17,-48
 4002808:	0017883a 	mov	r11,zero
 400280c:	24400007 	ldb	r17,0(r4)
 4002810:	5ac002a4 	muli	r11,r11,10
 4002814:	ad400044 	addi	r21,r21,1
 4002818:	a809883a 	mov	r4,r21
 400281c:	12d7883a 	add	r11,r2,r11
 4002820:	88bff404 	addi	r2,r17,-48
 4002824:	30bff92e 	bgeu	r6,r2,400280c <__reset+0xfa81280c>
 4002828:	dac03115 	stw	r11,196(sp)
 400282c:	003f2306 	br	40024bc <__reset+0xfa8124bc>
 4002830:	18c03fcc 	andi	r3,r3,255
 4002834:	18072b1e 	bne	r3,zero,40044e4 <___vfprintf_internal_r+0x21b0>
 4002838:	94800414 	ori	r18,r18,16
 400283c:	9080080c 	andi	r2,r18,32
 4002840:	10037b26 	beq	r2,zero,4003630 <___vfprintf_internal_r+0x12fc>
 4002844:	d9402d17 	ldw	r5,180(sp)
 4002848:	28800117 	ldw	r2,4(r5)
 400284c:	2cc00017 	ldw	r19,0(r5)
 4002850:	29400204 	addi	r5,r5,8
 4002854:	d9402d15 	stw	r5,180(sp)
 4002858:	102d883a 	mov	r22,r2
 400285c:	10044b16 	blt	r2,zero,400398c <___vfprintf_internal_r+0x1658>
 4002860:	d9402917 	ldw	r5,164(sp)
 4002864:	df002783 	ldbu	fp,158(sp)
 4002868:	2803bc16 	blt	r5,zero,400375c <___vfprintf_internal_r+0x1428>
 400286c:	00ffdfc4 	movi	r3,-129
 4002870:	9d84b03a 	or	r2,r19,r22
 4002874:	90e4703a 	and	r18,r18,r3
 4002878:	10017726 	beq	r2,zero,4002e58 <___vfprintf_internal_r+0xb24>
 400287c:	b0038326 	beq	r22,zero,400368c <___vfprintf_internal_r+0x1358>
 4002880:	dc402a15 	stw	r17,168(sp)
 4002884:	dc001e04 	addi	r16,sp,120
 4002888:	b023883a 	mov	r17,r22
 400288c:	402d883a 	mov	r22,r8
 4002890:	9809883a 	mov	r4,r19
 4002894:	880b883a 	mov	r5,r17
 4002898:	01800284 	movi	r6,10
 400289c:	000f883a 	mov	r7,zero
 40028a0:	400bbe00 	call	400bbe0 <__umoddi3>
 40028a4:	10800c04 	addi	r2,r2,48
 40028a8:	843fffc4 	addi	r16,r16,-1
 40028ac:	9809883a 	mov	r4,r19
 40028b0:	880b883a 	mov	r5,r17
 40028b4:	80800005 	stb	r2,0(r16)
 40028b8:	01800284 	movi	r6,10
 40028bc:	000f883a 	mov	r7,zero
 40028c0:	400b6680 	call	400b668 <__udivdi3>
 40028c4:	1027883a 	mov	r19,r2
 40028c8:	10c4b03a 	or	r2,r2,r3
 40028cc:	1823883a 	mov	r17,r3
 40028d0:	103fef1e 	bne	r2,zero,4002890 <__reset+0xfa812890>
 40028d4:	d8c02817 	ldw	r3,160(sp)
 40028d8:	dc402a17 	ldw	r17,168(sp)
 40028dc:	b011883a 	mov	r8,r22
 40028e0:	1c07c83a 	sub	r3,r3,r16
 40028e4:	d8c02e15 	stw	r3,184(sp)
 40028e8:	00005906 	br	4002a50 <___vfprintf_internal_r+0x71c>
 40028ec:	18c03fcc 	andi	r3,r3,255
 40028f0:	1806fa1e 	bne	r3,zero,40044dc <___vfprintf_internal_r+0x21a8>
 40028f4:	9080020c 	andi	r2,r18,8
 40028f8:	10048a26 	beq	r2,zero,4003b24 <___vfprintf_internal_r+0x17f0>
 40028fc:	d8c02d17 	ldw	r3,180(sp)
 4002900:	d9002d17 	ldw	r4,180(sp)
 4002904:	d9402d17 	ldw	r5,180(sp)
 4002908:	18c00017 	ldw	r3,0(r3)
 400290c:	21000117 	ldw	r4,4(r4)
 4002910:	29400204 	addi	r5,r5,8
 4002914:	d8c03615 	stw	r3,216(sp)
 4002918:	d9003815 	stw	r4,224(sp)
 400291c:	d9402d15 	stw	r5,180(sp)
 4002920:	d9003617 	ldw	r4,216(sp)
 4002924:	d9403817 	ldw	r5,224(sp)
 4002928:	da003d15 	stw	r8,244(sp)
 400292c:	04000044 	movi	r16,1
 4002930:	400940c0 	call	400940c <__fpclassifyd>
 4002934:	da003d17 	ldw	r8,244(sp)
 4002938:	14041f1e 	bne	r2,r16,40039b8 <___vfprintf_internal_r+0x1684>
 400293c:	d9003617 	ldw	r4,216(sp)
 4002940:	d9403817 	ldw	r5,224(sp)
 4002944:	000d883a 	mov	r6,zero
 4002948:	000f883a 	mov	r7,zero
 400294c:	400d5c40 	call	400d5c4 <__ledf2>
 4002950:	da003d17 	ldw	r8,244(sp)
 4002954:	1005be16 	blt	r2,zero,4004050 <___vfprintf_internal_r+0x1d1c>
 4002958:	df002783 	ldbu	fp,158(sp)
 400295c:	008011c4 	movi	r2,71
 4002960:	1445330e 	bge	r2,r17,4003e30 <___vfprintf_internal_r+0x1afc>
 4002964:	04010074 	movhi	r16,1025
 4002968:	84138504 	addi	r16,r16,19988
 400296c:	00c000c4 	movi	r3,3
 4002970:	00bfdfc4 	movi	r2,-129
 4002974:	d8c02a15 	stw	r3,168(sp)
 4002978:	90a4703a 	and	r18,r18,r2
 400297c:	d8c02e15 	stw	r3,184(sp)
 4002980:	d8002915 	stw	zero,164(sp)
 4002984:	d8003215 	stw	zero,200(sp)
 4002988:	00003706 	br	4002a68 <___vfprintf_internal_r+0x734>
 400298c:	94800214 	ori	r18,r18,8
 4002990:	ac400007 	ldb	r17,0(r21)
 4002994:	003ec806 	br	40024b8 <__reset+0xfa8124b8>
 4002998:	18c03fcc 	andi	r3,r3,255
 400299c:	1806db1e 	bne	r3,zero,400450c <___vfprintf_internal_r+0x21d8>
 40029a0:	94800414 	ori	r18,r18,16
 40029a4:	9080080c 	andi	r2,r18,32
 40029a8:	1002d826 	beq	r2,zero,400350c <___vfprintf_internal_r+0x11d8>
 40029ac:	d9402d17 	ldw	r5,180(sp)
 40029b0:	d8c02917 	ldw	r3,164(sp)
 40029b4:	d8002785 	stb	zero,158(sp)
 40029b8:	28800204 	addi	r2,r5,8
 40029bc:	2cc00017 	ldw	r19,0(r5)
 40029c0:	2d800117 	ldw	r22,4(r5)
 40029c4:	18048f16 	blt	r3,zero,4003c04 <___vfprintf_internal_r+0x18d0>
 40029c8:	013fdfc4 	movi	r4,-129
 40029cc:	9d86b03a 	or	r3,r19,r22
 40029d0:	d8802d15 	stw	r2,180(sp)
 40029d4:	9124703a 	and	r18,r18,r4
 40029d8:	1802d91e 	bne	r3,zero,4003540 <___vfprintf_internal_r+0x120c>
 40029dc:	d8c02917 	ldw	r3,164(sp)
 40029e0:	0039883a 	mov	fp,zero
 40029e4:	1805c326 	beq	r3,zero,40040f4 <___vfprintf_internal_r+0x1dc0>
 40029e8:	0027883a 	mov	r19,zero
 40029ec:	002d883a 	mov	r22,zero
 40029f0:	dc001e04 	addi	r16,sp,120
 40029f4:	9806d0fa 	srli	r3,r19,3
 40029f8:	b008977a 	slli	r4,r22,29
 40029fc:	b02cd0fa 	srli	r22,r22,3
 4002a00:	9cc001cc 	andi	r19,r19,7
 4002a04:	98800c04 	addi	r2,r19,48
 4002a08:	843fffc4 	addi	r16,r16,-1
 4002a0c:	20e6b03a 	or	r19,r4,r3
 4002a10:	80800005 	stb	r2,0(r16)
 4002a14:	9d86b03a 	or	r3,r19,r22
 4002a18:	183ff61e 	bne	r3,zero,40029f4 <__reset+0xfa8129f4>
 4002a1c:	90c0004c 	andi	r3,r18,1
 4002a20:	18013b26 	beq	r3,zero,4002f10 <___vfprintf_internal_r+0xbdc>
 4002a24:	10803fcc 	andi	r2,r2,255
 4002a28:	1080201c 	xori	r2,r2,128
 4002a2c:	10bfe004 	addi	r2,r2,-128
 4002a30:	00c00c04 	movi	r3,48
 4002a34:	10c13626 	beq	r2,r3,4002f10 <___vfprintf_internal_r+0xbdc>
 4002a38:	80ffffc5 	stb	r3,-1(r16)
 4002a3c:	d8c02817 	ldw	r3,160(sp)
 4002a40:	80bfffc4 	addi	r2,r16,-1
 4002a44:	1021883a 	mov	r16,r2
 4002a48:	1887c83a 	sub	r3,r3,r2
 4002a4c:	d8c02e15 	stw	r3,184(sp)
 4002a50:	d8802e17 	ldw	r2,184(sp)
 4002a54:	d9002917 	ldw	r4,164(sp)
 4002a58:	1100010e 	bge	r2,r4,4002a60 <___vfprintf_internal_r+0x72c>
 4002a5c:	2005883a 	mov	r2,r4
 4002a60:	d8802a15 	stw	r2,168(sp)
 4002a64:	d8003215 	stw	zero,200(sp)
 4002a68:	e7003fcc 	andi	fp,fp,255
 4002a6c:	e700201c 	xori	fp,fp,128
 4002a70:	e73fe004 	addi	fp,fp,-128
 4002a74:	e0000326 	beq	fp,zero,4002a84 <___vfprintf_internal_r+0x750>
 4002a78:	d8c02a17 	ldw	r3,168(sp)
 4002a7c:	18c00044 	addi	r3,r3,1
 4002a80:	d8c02a15 	stw	r3,168(sp)
 4002a84:	90c0008c 	andi	r3,r18,2
 4002a88:	d8c02b15 	stw	r3,172(sp)
 4002a8c:	18000326 	beq	r3,zero,4002a9c <___vfprintf_internal_r+0x768>
 4002a90:	d8c02a17 	ldw	r3,168(sp)
 4002a94:	18c00084 	addi	r3,r3,2
 4002a98:	d8c02a15 	stw	r3,168(sp)
 4002a9c:	90c0210c 	andi	r3,r18,132
 4002aa0:	d8c03015 	stw	r3,192(sp)
 4002aa4:	1801a31e 	bne	r3,zero,4003134 <___vfprintf_internal_r+0xe00>
 4002aa8:	d9003117 	ldw	r4,196(sp)
 4002aac:	d8c02a17 	ldw	r3,168(sp)
 4002ab0:	20e7c83a 	sub	r19,r4,r3
 4002ab4:	04c19f0e 	bge	zero,r19,4003134 <___vfprintf_internal_r+0xe00>
 4002ab8:	02400404 	movi	r9,16
 4002abc:	d8c02017 	ldw	r3,128(sp)
 4002ac0:	d8801f17 	ldw	r2,124(sp)
 4002ac4:	4cc50d0e 	bge	r9,r19,4003efc <___vfprintf_internal_r+0x1bc8>
 4002ac8:	01410074 	movhi	r5,1025
 4002acc:	29539884 	addi	r5,r5,20066
 4002ad0:	dc403b15 	stw	r17,236(sp)
 4002ad4:	d9403515 	stw	r5,212(sp)
 4002ad8:	9823883a 	mov	r17,r19
 4002adc:	482d883a 	mov	r22,r9
 4002ae0:	9027883a 	mov	r19,r18
 4002ae4:	070001c4 	movi	fp,7
 4002ae8:	8025883a 	mov	r18,r16
 4002aec:	dc002c17 	ldw	r16,176(sp)
 4002af0:	00000306 	br	4002b00 <___vfprintf_internal_r+0x7cc>
 4002af4:	8c7ffc04 	addi	r17,r17,-16
 4002af8:	42000204 	addi	r8,r8,8
 4002afc:	b440130e 	bge	r22,r17,4002b4c <___vfprintf_internal_r+0x818>
 4002b00:	01010074 	movhi	r4,1025
 4002b04:	18c00404 	addi	r3,r3,16
 4002b08:	10800044 	addi	r2,r2,1
 4002b0c:	21139884 	addi	r4,r4,20066
 4002b10:	41000015 	stw	r4,0(r8)
 4002b14:	45800115 	stw	r22,4(r8)
 4002b18:	d8c02015 	stw	r3,128(sp)
 4002b1c:	d8801f15 	stw	r2,124(sp)
 4002b20:	e0bff40e 	bge	fp,r2,4002af4 <__reset+0xfa812af4>
 4002b24:	d9801e04 	addi	r6,sp,120
 4002b28:	b80b883a 	mov	r5,r23
 4002b2c:	8009883a 	mov	r4,r16
 4002b30:	40097e80 	call	40097e8 <__sprint_r>
 4002b34:	103f011e 	bne	r2,zero,400273c <__reset+0xfa81273c>
 4002b38:	8c7ffc04 	addi	r17,r17,-16
 4002b3c:	d8c02017 	ldw	r3,128(sp)
 4002b40:	d8801f17 	ldw	r2,124(sp)
 4002b44:	da000404 	addi	r8,sp,16
 4002b48:	b47fed16 	blt	r22,r17,4002b00 <__reset+0xfa812b00>
 4002b4c:	9021883a 	mov	r16,r18
 4002b50:	9825883a 	mov	r18,r19
 4002b54:	8827883a 	mov	r19,r17
 4002b58:	dc403b17 	ldw	r17,236(sp)
 4002b5c:	d9403517 	ldw	r5,212(sp)
 4002b60:	98c7883a 	add	r3,r19,r3
 4002b64:	10800044 	addi	r2,r2,1
 4002b68:	41400015 	stw	r5,0(r8)
 4002b6c:	44c00115 	stw	r19,4(r8)
 4002b70:	d8c02015 	stw	r3,128(sp)
 4002b74:	d8801f15 	stw	r2,124(sp)
 4002b78:	010001c4 	movi	r4,7
 4002b7c:	2082a316 	blt	r4,r2,400360c <___vfprintf_internal_r+0x12d8>
 4002b80:	df002787 	ldb	fp,158(sp)
 4002b84:	42000204 	addi	r8,r8,8
 4002b88:	e0000c26 	beq	fp,zero,4002bbc <___vfprintf_internal_r+0x888>
 4002b8c:	d8801f17 	ldw	r2,124(sp)
 4002b90:	d9002784 	addi	r4,sp,158
 4002b94:	18c00044 	addi	r3,r3,1
 4002b98:	10800044 	addi	r2,r2,1
 4002b9c:	41000015 	stw	r4,0(r8)
 4002ba0:	01000044 	movi	r4,1
 4002ba4:	41000115 	stw	r4,4(r8)
 4002ba8:	d8c02015 	stw	r3,128(sp)
 4002bac:	d8801f15 	stw	r2,124(sp)
 4002bb0:	010001c4 	movi	r4,7
 4002bb4:	20823c16 	blt	r4,r2,40034a8 <___vfprintf_internal_r+0x1174>
 4002bb8:	42000204 	addi	r8,r8,8
 4002bbc:	d8802b17 	ldw	r2,172(sp)
 4002bc0:	10000c26 	beq	r2,zero,4002bf4 <___vfprintf_internal_r+0x8c0>
 4002bc4:	d8801f17 	ldw	r2,124(sp)
 4002bc8:	d9002704 	addi	r4,sp,156
 4002bcc:	18c00084 	addi	r3,r3,2
 4002bd0:	10800044 	addi	r2,r2,1
 4002bd4:	41000015 	stw	r4,0(r8)
 4002bd8:	01000084 	movi	r4,2
 4002bdc:	41000115 	stw	r4,4(r8)
 4002be0:	d8c02015 	stw	r3,128(sp)
 4002be4:	d8801f15 	stw	r2,124(sp)
 4002be8:	010001c4 	movi	r4,7
 4002bec:	20823616 	blt	r4,r2,40034c8 <___vfprintf_internal_r+0x1194>
 4002bf0:	42000204 	addi	r8,r8,8
 4002bf4:	d9003017 	ldw	r4,192(sp)
 4002bf8:	00802004 	movi	r2,128
 4002bfc:	20819926 	beq	r4,r2,4003264 <___vfprintf_internal_r+0xf30>
 4002c00:	d9402917 	ldw	r5,164(sp)
 4002c04:	d8802e17 	ldw	r2,184(sp)
 4002c08:	28adc83a 	sub	r22,r5,r2
 4002c0c:	0580310e 	bge	zero,r22,4002cd4 <___vfprintf_internal_r+0x9a0>
 4002c10:	07000404 	movi	fp,16
 4002c14:	d8801f17 	ldw	r2,124(sp)
 4002c18:	e584140e 	bge	fp,r22,4003c6c <___vfprintf_internal_r+0x1938>
 4002c1c:	01410074 	movhi	r5,1025
 4002c20:	29539484 	addi	r5,r5,20050
 4002c24:	dc402915 	stw	r17,164(sp)
 4002c28:	d9402b15 	stw	r5,172(sp)
 4002c2c:	b023883a 	mov	r17,r22
 4002c30:	04c001c4 	movi	r19,7
 4002c34:	a82d883a 	mov	r22,r21
 4002c38:	902b883a 	mov	r21,r18
 4002c3c:	8025883a 	mov	r18,r16
 4002c40:	dc002c17 	ldw	r16,176(sp)
 4002c44:	00000306 	br	4002c54 <___vfprintf_internal_r+0x920>
 4002c48:	8c7ffc04 	addi	r17,r17,-16
 4002c4c:	42000204 	addi	r8,r8,8
 4002c50:	e440110e 	bge	fp,r17,4002c98 <___vfprintf_internal_r+0x964>
 4002c54:	18c00404 	addi	r3,r3,16
 4002c58:	10800044 	addi	r2,r2,1
 4002c5c:	45000015 	stw	r20,0(r8)
 4002c60:	47000115 	stw	fp,4(r8)
 4002c64:	d8c02015 	stw	r3,128(sp)
 4002c68:	d8801f15 	stw	r2,124(sp)
 4002c6c:	98bff60e 	bge	r19,r2,4002c48 <__reset+0xfa812c48>
 4002c70:	d9801e04 	addi	r6,sp,120
 4002c74:	b80b883a 	mov	r5,r23
 4002c78:	8009883a 	mov	r4,r16
 4002c7c:	40097e80 	call	40097e8 <__sprint_r>
 4002c80:	103eae1e 	bne	r2,zero,400273c <__reset+0xfa81273c>
 4002c84:	8c7ffc04 	addi	r17,r17,-16
 4002c88:	d8c02017 	ldw	r3,128(sp)
 4002c8c:	d8801f17 	ldw	r2,124(sp)
 4002c90:	da000404 	addi	r8,sp,16
 4002c94:	e47fef16 	blt	fp,r17,4002c54 <__reset+0xfa812c54>
 4002c98:	9021883a 	mov	r16,r18
 4002c9c:	a825883a 	mov	r18,r21
 4002ca0:	b02b883a 	mov	r21,r22
 4002ca4:	882d883a 	mov	r22,r17
 4002ca8:	dc402917 	ldw	r17,164(sp)
 4002cac:	d9002b17 	ldw	r4,172(sp)
 4002cb0:	1d87883a 	add	r3,r3,r22
 4002cb4:	10800044 	addi	r2,r2,1
 4002cb8:	41000015 	stw	r4,0(r8)
 4002cbc:	45800115 	stw	r22,4(r8)
 4002cc0:	d8c02015 	stw	r3,128(sp)
 4002cc4:	d8801f15 	stw	r2,124(sp)
 4002cc8:	010001c4 	movi	r4,7
 4002ccc:	2081ee16 	blt	r4,r2,4003488 <___vfprintf_internal_r+0x1154>
 4002cd0:	42000204 	addi	r8,r8,8
 4002cd4:	9080400c 	andi	r2,r18,256
 4002cd8:	1001181e 	bne	r2,zero,400313c <___vfprintf_internal_r+0xe08>
 4002cdc:	d9402e17 	ldw	r5,184(sp)
 4002ce0:	d8801f17 	ldw	r2,124(sp)
 4002ce4:	44000015 	stw	r16,0(r8)
 4002ce8:	1947883a 	add	r3,r3,r5
 4002cec:	10800044 	addi	r2,r2,1
 4002cf0:	41400115 	stw	r5,4(r8)
 4002cf4:	d8c02015 	stw	r3,128(sp)
 4002cf8:	d8801f15 	stw	r2,124(sp)
 4002cfc:	010001c4 	movi	r4,7
 4002d00:	2081d316 	blt	r4,r2,4003450 <___vfprintf_internal_r+0x111c>
 4002d04:	42000204 	addi	r8,r8,8
 4002d08:	9480010c 	andi	r18,r18,4
 4002d0c:	90003226 	beq	r18,zero,4002dd8 <___vfprintf_internal_r+0xaa4>
 4002d10:	d9403117 	ldw	r5,196(sp)
 4002d14:	d8802a17 	ldw	r2,168(sp)
 4002d18:	28a1c83a 	sub	r16,r5,r2
 4002d1c:	04002e0e 	bge	zero,r16,4002dd8 <___vfprintf_internal_r+0xaa4>
 4002d20:	04400404 	movi	r17,16
 4002d24:	d8801f17 	ldw	r2,124(sp)
 4002d28:	8c04a20e 	bge	r17,r16,4003fb4 <___vfprintf_internal_r+0x1c80>
 4002d2c:	01410074 	movhi	r5,1025
 4002d30:	29539884 	addi	r5,r5,20066
 4002d34:	d9403515 	stw	r5,212(sp)
 4002d38:	048001c4 	movi	r18,7
 4002d3c:	dcc02c17 	ldw	r19,176(sp)
 4002d40:	00000306 	br	4002d50 <___vfprintf_internal_r+0xa1c>
 4002d44:	843ffc04 	addi	r16,r16,-16
 4002d48:	42000204 	addi	r8,r8,8
 4002d4c:	8c00130e 	bge	r17,r16,4002d9c <___vfprintf_internal_r+0xa68>
 4002d50:	01010074 	movhi	r4,1025
 4002d54:	18c00404 	addi	r3,r3,16
 4002d58:	10800044 	addi	r2,r2,1
 4002d5c:	21139884 	addi	r4,r4,20066
 4002d60:	41000015 	stw	r4,0(r8)
 4002d64:	44400115 	stw	r17,4(r8)
 4002d68:	d8c02015 	stw	r3,128(sp)
 4002d6c:	d8801f15 	stw	r2,124(sp)
 4002d70:	90bff40e 	bge	r18,r2,4002d44 <__reset+0xfa812d44>
 4002d74:	d9801e04 	addi	r6,sp,120
 4002d78:	b80b883a 	mov	r5,r23
 4002d7c:	9809883a 	mov	r4,r19
 4002d80:	40097e80 	call	40097e8 <__sprint_r>
 4002d84:	103e6d1e 	bne	r2,zero,400273c <__reset+0xfa81273c>
 4002d88:	843ffc04 	addi	r16,r16,-16
 4002d8c:	d8c02017 	ldw	r3,128(sp)
 4002d90:	d8801f17 	ldw	r2,124(sp)
 4002d94:	da000404 	addi	r8,sp,16
 4002d98:	8c3fed16 	blt	r17,r16,4002d50 <__reset+0xfa812d50>
 4002d9c:	d9403517 	ldw	r5,212(sp)
 4002da0:	1c07883a 	add	r3,r3,r16
 4002da4:	10800044 	addi	r2,r2,1
 4002da8:	41400015 	stw	r5,0(r8)
 4002dac:	44000115 	stw	r16,4(r8)
 4002db0:	d8c02015 	stw	r3,128(sp)
 4002db4:	d8801f15 	stw	r2,124(sp)
 4002db8:	010001c4 	movi	r4,7
 4002dbc:	2080060e 	bge	r4,r2,4002dd8 <___vfprintf_internal_r+0xaa4>
 4002dc0:	d9002c17 	ldw	r4,176(sp)
 4002dc4:	d9801e04 	addi	r6,sp,120
 4002dc8:	b80b883a 	mov	r5,r23
 4002dcc:	40097e80 	call	40097e8 <__sprint_r>
 4002dd0:	103e5a1e 	bne	r2,zero,400273c <__reset+0xfa81273c>
 4002dd4:	d8c02017 	ldw	r3,128(sp)
 4002dd8:	d8803117 	ldw	r2,196(sp)
 4002ddc:	d9002a17 	ldw	r4,168(sp)
 4002de0:	1100010e 	bge	r2,r4,4002de8 <___vfprintf_internal_r+0xab4>
 4002de4:	2005883a 	mov	r2,r4
 4002de8:	d9402f17 	ldw	r5,188(sp)
 4002dec:	288b883a 	add	r5,r5,r2
 4002df0:	d9402f15 	stw	r5,188(sp)
 4002df4:	18019e1e 	bne	r3,zero,4003470 <___vfprintf_internal_r+0x113c>
 4002df8:	a8800007 	ldb	r2,0(r21)
 4002dfc:	d8001f15 	stw	zero,124(sp)
 4002e00:	da000404 	addi	r8,sp,16
 4002e04:	103d851e 	bne	r2,zero,400241c <__reset+0xfa81241c>
 4002e08:	a821883a 	mov	r16,r21
 4002e0c:	003d9b06 	br	400247c <__reset+0xfa81247c>
 4002e10:	18c03fcc 	andi	r3,r3,255
 4002e14:	1805c11e 	bne	r3,zero,400451c <___vfprintf_internal_r+0x21e8>
 4002e18:	94800414 	ori	r18,r18,16
 4002e1c:	9080080c 	andi	r2,r18,32
 4002e20:	10020c26 	beq	r2,zero,4003654 <___vfprintf_internal_r+0x1320>
 4002e24:	d8802d17 	ldw	r2,180(sp)
 4002e28:	d9002917 	ldw	r4,164(sp)
 4002e2c:	d8002785 	stb	zero,158(sp)
 4002e30:	10c00204 	addi	r3,r2,8
 4002e34:	14c00017 	ldw	r19,0(r2)
 4002e38:	15800117 	ldw	r22,4(r2)
 4002e3c:	20040f16 	blt	r4,zero,4003e7c <___vfprintf_internal_r+0x1b48>
 4002e40:	013fdfc4 	movi	r4,-129
 4002e44:	9d84b03a 	or	r2,r19,r22
 4002e48:	d8c02d15 	stw	r3,180(sp)
 4002e4c:	9124703a 	and	r18,r18,r4
 4002e50:	0039883a 	mov	fp,zero
 4002e54:	103e891e 	bne	r2,zero,400287c <__reset+0xfa81287c>
 4002e58:	d9002917 	ldw	r4,164(sp)
 4002e5c:	2002c11e 	bne	r4,zero,4003964 <___vfprintf_internal_r+0x1630>
 4002e60:	d8002915 	stw	zero,164(sp)
 4002e64:	d8002e15 	stw	zero,184(sp)
 4002e68:	dc001e04 	addi	r16,sp,120
 4002e6c:	003ef806 	br	4002a50 <__reset+0xfa812a50>
 4002e70:	18c03fcc 	andi	r3,r3,255
 4002e74:	18059d1e 	bne	r3,zero,40044ec <___vfprintf_internal_r+0x21b8>
 4002e78:	01410074 	movhi	r5,1025
 4002e7c:	29538804 	addi	r5,r5,20000
 4002e80:	d9403915 	stw	r5,228(sp)
 4002e84:	9080080c 	andi	r2,r18,32
 4002e88:	10005226 	beq	r2,zero,4002fd4 <___vfprintf_internal_r+0xca0>
 4002e8c:	d8802d17 	ldw	r2,180(sp)
 4002e90:	14c00017 	ldw	r19,0(r2)
 4002e94:	15800117 	ldw	r22,4(r2)
 4002e98:	10800204 	addi	r2,r2,8
 4002e9c:	d8802d15 	stw	r2,180(sp)
 4002ea0:	9080004c 	andi	r2,r18,1
 4002ea4:	10019026 	beq	r2,zero,40034e8 <___vfprintf_internal_r+0x11b4>
 4002ea8:	9d84b03a 	or	r2,r19,r22
 4002eac:	10036926 	beq	r2,zero,4003c54 <___vfprintf_internal_r+0x1920>
 4002eb0:	d8c02917 	ldw	r3,164(sp)
 4002eb4:	00800c04 	movi	r2,48
 4002eb8:	d8802705 	stb	r2,156(sp)
 4002ebc:	dc402745 	stb	r17,157(sp)
 4002ec0:	d8002785 	stb	zero,158(sp)
 4002ec4:	90800094 	ori	r2,r18,2
 4002ec8:	18045d16 	blt	r3,zero,4004040 <___vfprintf_internal_r+0x1d0c>
 4002ecc:	00bfdfc4 	movi	r2,-129
 4002ed0:	90a4703a 	and	r18,r18,r2
 4002ed4:	94800094 	ori	r18,r18,2
 4002ed8:	0039883a 	mov	fp,zero
 4002edc:	d9003917 	ldw	r4,228(sp)
 4002ee0:	dc001e04 	addi	r16,sp,120
 4002ee4:	988003cc 	andi	r2,r19,15
 4002ee8:	b006973a 	slli	r3,r22,28
 4002eec:	2085883a 	add	r2,r4,r2
 4002ef0:	9826d13a 	srli	r19,r19,4
 4002ef4:	10800003 	ldbu	r2,0(r2)
 4002ef8:	b02cd13a 	srli	r22,r22,4
 4002efc:	843fffc4 	addi	r16,r16,-1
 4002f00:	1ce6b03a 	or	r19,r3,r19
 4002f04:	80800005 	stb	r2,0(r16)
 4002f08:	9d84b03a 	or	r2,r19,r22
 4002f0c:	103ff51e 	bne	r2,zero,4002ee4 <__reset+0xfa812ee4>
 4002f10:	d8c02817 	ldw	r3,160(sp)
 4002f14:	1c07c83a 	sub	r3,r3,r16
 4002f18:	d8c02e15 	stw	r3,184(sp)
 4002f1c:	003ecc06 	br	4002a50 <__reset+0xfa812a50>
 4002f20:	18c03fcc 	andi	r3,r3,255
 4002f24:	183e9f26 	beq	r3,zero,40029a4 <__reset+0xfa8129a4>
 4002f28:	d9c02785 	stb	r7,158(sp)
 4002f2c:	003e9d06 	br	40029a4 <__reset+0xfa8129a4>
 4002f30:	00c00044 	movi	r3,1
 4002f34:	01c00ac4 	movi	r7,43
 4002f38:	ac400007 	ldb	r17,0(r21)
 4002f3c:	003d5e06 	br	40024b8 <__reset+0xfa8124b8>
 4002f40:	94800814 	ori	r18,r18,32
 4002f44:	ac400007 	ldb	r17,0(r21)
 4002f48:	003d5b06 	br	40024b8 <__reset+0xfa8124b8>
 4002f4c:	d8c02d17 	ldw	r3,180(sp)
 4002f50:	d8002785 	stb	zero,158(sp)
 4002f54:	1c000017 	ldw	r16,0(r3)
 4002f58:	1cc00104 	addi	r19,r3,4
 4002f5c:	80041926 	beq	r16,zero,4003fc4 <___vfprintf_internal_r+0x1c90>
 4002f60:	d9002917 	ldw	r4,164(sp)
 4002f64:	2003d016 	blt	r4,zero,4003ea8 <___vfprintf_internal_r+0x1b74>
 4002f68:	200d883a 	mov	r6,r4
 4002f6c:	000b883a 	mov	r5,zero
 4002f70:	8009883a 	mov	r4,r16
 4002f74:	da003d15 	stw	r8,244(sp)
 4002f78:	4007b440 	call	4007b44 <memchr>
 4002f7c:	da003d17 	ldw	r8,244(sp)
 4002f80:	10045426 	beq	r2,zero,40040d4 <___vfprintf_internal_r+0x1da0>
 4002f84:	1405c83a 	sub	r2,r2,r16
 4002f88:	d8802e15 	stw	r2,184(sp)
 4002f8c:	1003cc16 	blt	r2,zero,4003ec0 <___vfprintf_internal_r+0x1b8c>
 4002f90:	df002783 	ldbu	fp,158(sp)
 4002f94:	d8802a15 	stw	r2,168(sp)
 4002f98:	dcc02d15 	stw	r19,180(sp)
 4002f9c:	d8002915 	stw	zero,164(sp)
 4002fa0:	d8003215 	stw	zero,200(sp)
 4002fa4:	003eb006 	br	4002a68 <__reset+0xfa812a68>
 4002fa8:	18c03fcc 	andi	r3,r3,255
 4002fac:	183f9b26 	beq	r3,zero,4002e1c <__reset+0xfa812e1c>
 4002fb0:	d9c02785 	stb	r7,158(sp)
 4002fb4:	003f9906 	br	4002e1c <__reset+0xfa812e1c>
 4002fb8:	18c03fcc 	andi	r3,r3,255
 4002fbc:	1805551e 	bne	r3,zero,4004514 <___vfprintf_internal_r+0x21e0>
 4002fc0:	01410074 	movhi	r5,1025
 4002fc4:	29538d04 	addi	r5,r5,20020
 4002fc8:	d9403915 	stw	r5,228(sp)
 4002fcc:	9080080c 	andi	r2,r18,32
 4002fd0:	103fae1e 	bne	r2,zero,4002e8c <__reset+0xfa812e8c>
 4002fd4:	9080040c 	andi	r2,r18,16
 4002fd8:	1002de26 	beq	r2,zero,4003b54 <___vfprintf_internal_r+0x1820>
 4002fdc:	d8c02d17 	ldw	r3,180(sp)
 4002fe0:	002d883a 	mov	r22,zero
 4002fe4:	1cc00017 	ldw	r19,0(r3)
 4002fe8:	18c00104 	addi	r3,r3,4
 4002fec:	d8c02d15 	stw	r3,180(sp)
 4002ff0:	003fab06 	br	4002ea0 <__reset+0xfa812ea0>
 4002ff4:	38803fcc 	andi	r2,r7,255
 4002ff8:	1080201c 	xori	r2,r2,128
 4002ffc:	10bfe004 	addi	r2,r2,-128
 4003000:	1002d21e 	bne	r2,zero,4003b4c <___vfprintf_internal_r+0x1818>
 4003004:	00c00044 	movi	r3,1
 4003008:	01c00804 	movi	r7,32
 400300c:	ac400007 	ldb	r17,0(r21)
 4003010:	003d2906 	br	40024b8 <__reset+0xfa8124b8>
 4003014:	94800054 	ori	r18,r18,1
 4003018:	ac400007 	ldb	r17,0(r21)
 400301c:	003d2606 	br	40024b8 <__reset+0xfa8124b8>
 4003020:	18c03fcc 	andi	r3,r3,255
 4003024:	183e0526 	beq	r3,zero,400283c <__reset+0xfa81283c>
 4003028:	d9c02785 	stb	r7,158(sp)
 400302c:	003e0306 	br	400283c <__reset+0xfa81283c>
 4003030:	94801014 	ori	r18,r18,64
 4003034:	ac400007 	ldb	r17,0(r21)
 4003038:	003d1f06 	br	40024b8 <__reset+0xfa8124b8>
 400303c:	ac400007 	ldb	r17,0(r21)
 4003040:	8a438726 	beq	r17,r9,4003e60 <___vfprintf_internal_r+0x1b2c>
 4003044:	94800414 	ori	r18,r18,16
 4003048:	003d1b06 	br	40024b8 <__reset+0xfa8124b8>
 400304c:	18c03fcc 	andi	r3,r3,255
 4003050:	1805341e 	bne	r3,zero,4004524 <___vfprintf_internal_r+0x21f0>
 4003054:	9080080c 	andi	r2,r18,32
 4003058:	1002cd26 	beq	r2,zero,4003b90 <___vfprintf_internal_r+0x185c>
 400305c:	d9402d17 	ldw	r5,180(sp)
 4003060:	d9002f17 	ldw	r4,188(sp)
 4003064:	28800017 	ldw	r2,0(r5)
 4003068:	2007d7fa 	srai	r3,r4,31
 400306c:	29400104 	addi	r5,r5,4
 4003070:	d9402d15 	stw	r5,180(sp)
 4003074:	11000015 	stw	r4,0(r2)
 4003078:	10c00115 	stw	r3,4(r2)
 400307c:	003ce506 	br	4002414 <__reset+0xfa812414>
 4003080:	d8c02d17 	ldw	r3,180(sp)
 4003084:	d9002d17 	ldw	r4,180(sp)
 4003088:	d8002785 	stb	zero,158(sp)
 400308c:	18800017 	ldw	r2,0(r3)
 4003090:	21000104 	addi	r4,r4,4
 4003094:	00c00044 	movi	r3,1
 4003098:	d8c02a15 	stw	r3,168(sp)
 400309c:	d8801405 	stb	r2,80(sp)
 40030a0:	d9002d15 	stw	r4,180(sp)
 40030a4:	d8c02e15 	stw	r3,184(sp)
 40030a8:	d8002915 	stw	zero,164(sp)
 40030ac:	d8003215 	stw	zero,200(sp)
 40030b0:	dc001404 	addi	r16,sp,80
 40030b4:	0039883a 	mov	fp,zero
 40030b8:	003e7206 	br	4002a84 <__reset+0xfa812a84>
 40030bc:	01010074 	movhi	r4,1025
 40030c0:	21138d04 	addi	r4,r4,20020
 40030c4:	0039883a 	mov	fp,zero
 40030c8:	d9003915 	stw	r4,228(sp)
 40030cc:	04401e04 	movi	r17,120
 40030d0:	003f8206 	br	4002edc <__reset+0xfa812edc>
 40030d4:	18c03fcc 	andi	r3,r3,255
 40030d8:	1805061e 	bne	r3,zero,40044f4 <___vfprintf_internal_r+0x21c0>
 40030dc:	883d9126 	beq	r17,zero,4002724 <__reset+0xfa812724>
 40030e0:	00c00044 	movi	r3,1
 40030e4:	d8c02a15 	stw	r3,168(sp)
 40030e8:	dc401405 	stb	r17,80(sp)
 40030ec:	d8002785 	stb	zero,158(sp)
 40030f0:	003fec06 	br	40030a4 <__reset+0xfa8130a4>
 40030f4:	01410074 	movhi	r5,1025
 40030f8:	29538d04 	addi	r5,r5,20020
 40030fc:	d9403915 	stw	r5,228(sp)
 4003100:	d8c02d15 	stw	r3,180(sp)
 4003104:	1025883a 	mov	r18,r2
 4003108:	04401e04 	movi	r17,120
 400310c:	9d84b03a 	or	r2,r19,r22
 4003110:	1000fc1e 	bne	r2,zero,4003504 <___vfprintf_internal_r+0x11d0>
 4003114:	0039883a 	mov	fp,zero
 4003118:	00800084 	movi	r2,2
 400311c:	10803fcc 	andi	r2,r2,255
 4003120:	00c00044 	movi	r3,1
 4003124:	10c20f26 	beq	r2,r3,4003964 <___vfprintf_internal_r+0x1630>
 4003128:	00c00084 	movi	r3,2
 400312c:	10fd6326 	beq	r2,r3,40026bc <__reset+0xfa8126bc>
 4003130:	003e2d06 	br	40029e8 <__reset+0xfa8129e8>
 4003134:	d8c02017 	ldw	r3,128(sp)
 4003138:	003e9306 	br	4002b88 <__reset+0xfa812b88>
 400313c:	00801944 	movi	r2,101
 4003140:	14407e0e 	bge	r2,r17,400333c <___vfprintf_internal_r+0x1008>
 4003144:	d9003617 	ldw	r4,216(sp)
 4003148:	d9403817 	ldw	r5,224(sp)
 400314c:	000d883a 	mov	r6,zero
 4003150:	000f883a 	mov	r7,zero
 4003154:	d8c03c15 	stw	r3,240(sp)
 4003158:	da003d15 	stw	r8,244(sp)
 400315c:	400d4600 	call	400d460 <__eqdf2>
 4003160:	d8c03c17 	ldw	r3,240(sp)
 4003164:	da003d17 	ldw	r8,244(sp)
 4003168:	1000f71e 	bne	r2,zero,4003548 <___vfprintf_internal_r+0x1214>
 400316c:	d8801f17 	ldw	r2,124(sp)
 4003170:	01010074 	movhi	r4,1025
 4003174:	21139404 	addi	r4,r4,20048
 4003178:	18c00044 	addi	r3,r3,1
 400317c:	10800044 	addi	r2,r2,1
 4003180:	41000015 	stw	r4,0(r8)
 4003184:	01000044 	movi	r4,1
 4003188:	41000115 	stw	r4,4(r8)
 400318c:	d8c02015 	stw	r3,128(sp)
 4003190:	d8801f15 	stw	r2,124(sp)
 4003194:	010001c4 	movi	r4,7
 4003198:	2082b816 	blt	r4,r2,4003c7c <___vfprintf_internal_r+0x1948>
 400319c:	42000204 	addi	r8,r8,8
 40031a0:	d8802617 	ldw	r2,152(sp)
 40031a4:	d9403317 	ldw	r5,204(sp)
 40031a8:	11400216 	blt	r2,r5,40031b4 <___vfprintf_internal_r+0xe80>
 40031ac:	9080004c 	andi	r2,r18,1
 40031b0:	103ed526 	beq	r2,zero,4002d08 <__reset+0xfa812d08>
 40031b4:	d8803717 	ldw	r2,220(sp)
 40031b8:	d9003417 	ldw	r4,208(sp)
 40031bc:	d9403717 	ldw	r5,220(sp)
 40031c0:	1887883a 	add	r3,r3,r2
 40031c4:	d8801f17 	ldw	r2,124(sp)
 40031c8:	41000015 	stw	r4,0(r8)
 40031cc:	41400115 	stw	r5,4(r8)
 40031d0:	10800044 	addi	r2,r2,1
 40031d4:	d8c02015 	stw	r3,128(sp)
 40031d8:	d8801f15 	stw	r2,124(sp)
 40031dc:	010001c4 	movi	r4,7
 40031e0:	20832916 	blt	r4,r2,4003e88 <___vfprintf_internal_r+0x1b54>
 40031e4:	42000204 	addi	r8,r8,8
 40031e8:	d8803317 	ldw	r2,204(sp)
 40031ec:	143fffc4 	addi	r16,r2,-1
 40031f0:	043ec50e 	bge	zero,r16,4002d08 <__reset+0xfa812d08>
 40031f4:	04400404 	movi	r17,16
 40031f8:	d8801f17 	ldw	r2,124(sp)
 40031fc:	8c00880e 	bge	r17,r16,4003420 <___vfprintf_internal_r+0x10ec>
 4003200:	01410074 	movhi	r5,1025
 4003204:	29539484 	addi	r5,r5,20050
 4003208:	d9402b15 	stw	r5,172(sp)
 400320c:	058001c4 	movi	r22,7
 4003210:	dcc02c17 	ldw	r19,176(sp)
 4003214:	00000306 	br	4003224 <___vfprintf_internal_r+0xef0>
 4003218:	42000204 	addi	r8,r8,8
 400321c:	843ffc04 	addi	r16,r16,-16
 4003220:	8c00820e 	bge	r17,r16,400342c <___vfprintf_internal_r+0x10f8>
 4003224:	18c00404 	addi	r3,r3,16
 4003228:	10800044 	addi	r2,r2,1
 400322c:	45000015 	stw	r20,0(r8)
 4003230:	44400115 	stw	r17,4(r8)
 4003234:	d8c02015 	stw	r3,128(sp)
 4003238:	d8801f15 	stw	r2,124(sp)
 400323c:	b0bff60e 	bge	r22,r2,4003218 <__reset+0xfa813218>
 4003240:	d9801e04 	addi	r6,sp,120
 4003244:	b80b883a 	mov	r5,r23
 4003248:	9809883a 	mov	r4,r19
 400324c:	40097e80 	call	40097e8 <__sprint_r>
 4003250:	103d3a1e 	bne	r2,zero,400273c <__reset+0xfa81273c>
 4003254:	d8c02017 	ldw	r3,128(sp)
 4003258:	d8801f17 	ldw	r2,124(sp)
 400325c:	da000404 	addi	r8,sp,16
 4003260:	003fee06 	br	400321c <__reset+0xfa81321c>
 4003264:	d9403117 	ldw	r5,196(sp)
 4003268:	d8802a17 	ldw	r2,168(sp)
 400326c:	28adc83a 	sub	r22,r5,r2
 4003270:	05be630e 	bge	zero,r22,4002c00 <__reset+0xfa812c00>
 4003274:	07000404 	movi	fp,16
 4003278:	d8801f17 	ldw	r2,124(sp)
 400327c:	e5838f0e 	bge	fp,r22,40040bc <___vfprintf_internal_r+0x1d88>
 4003280:	01410074 	movhi	r5,1025
 4003284:	29539484 	addi	r5,r5,20050
 4003288:	dc403015 	stw	r17,192(sp)
 400328c:	d9402b15 	stw	r5,172(sp)
 4003290:	b023883a 	mov	r17,r22
 4003294:	04c001c4 	movi	r19,7
 4003298:	a82d883a 	mov	r22,r21
 400329c:	902b883a 	mov	r21,r18
 40032a0:	8025883a 	mov	r18,r16
 40032a4:	dc002c17 	ldw	r16,176(sp)
 40032a8:	00000306 	br	40032b8 <___vfprintf_internal_r+0xf84>
 40032ac:	8c7ffc04 	addi	r17,r17,-16
 40032b0:	42000204 	addi	r8,r8,8
 40032b4:	e440110e 	bge	fp,r17,40032fc <___vfprintf_internal_r+0xfc8>
 40032b8:	18c00404 	addi	r3,r3,16
 40032bc:	10800044 	addi	r2,r2,1
 40032c0:	45000015 	stw	r20,0(r8)
 40032c4:	47000115 	stw	fp,4(r8)
 40032c8:	d8c02015 	stw	r3,128(sp)
 40032cc:	d8801f15 	stw	r2,124(sp)
 40032d0:	98bff60e 	bge	r19,r2,40032ac <__reset+0xfa8132ac>
 40032d4:	d9801e04 	addi	r6,sp,120
 40032d8:	b80b883a 	mov	r5,r23
 40032dc:	8009883a 	mov	r4,r16
 40032e0:	40097e80 	call	40097e8 <__sprint_r>
 40032e4:	103d151e 	bne	r2,zero,400273c <__reset+0xfa81273c>
 40032e8:	8c7ffc04 	addi	r17,r17,-16
 40032ec:	d8c02017 	ldw	r3,128(sp)
 40032f0:	d8801f17 	ldw	r2,124(sp)
 40032f4:	da000404 	addi	r8,sp,16
 40032f8:	e47fef16 	blt	fp,r17,40032b8 <__reset+0xfa8132b8>
 40032fc:	9021883a 	mov	r16,r18
 4003300:	a825883a 	mov	r18,r21
 4003304:	b02b883a 	mov	r21,r22
 4003308:	882d883a 	mov	r22,r17
 400330c:	dc403017 	ldw	r17,192(sp)
 4003310:	d9002b17 	ldw	r4,172(sp)
 4003314:	1d87883a 	add	r3,r3,r22
 4003318:	10800044 	addi	r2,r2,1
 400331c:	41000015 	stw	r4,0(r8)
 4003320:	45800115 	stw	r22,4(r8)
 4003324:	d8c02015 	stw	r3,128(sp)
 4003328:	d8801f15 	stw	r2,124(sp)
 400332c:	010001c4 	movi	r4,7
 4003330:	20818e16 	blt	r4,r2,400396c <___vfprintf_internal_r+0x1638>
 4003334:	42000204 	addi	r8,r8,8
 4003338:	003e3106 	br	4002c00 <__reset+0xfa812c00>
 400333c:	d9403317 	ldw	r5,204(sp)
 4003340:	00800044 	movi	r2,1
 4003344:	18c00044 	addi	r3,r3,1
 4003348:	1141530e 	bge	r2,r5,4003898 <___vfprintf_internal_r+0x1564>
 400334c:	dc401f17 	ldw	r17,124(sp)
 4003350:	00800044 	movi	r2,1
 4003354:	40800115 	stw	r2,4(r8)
 4003358:	8c400044 	addi	r17,r17,1
 400335c:	44000015 	stw	r16,0(r8)
 4003360:	d8c02015 	stw	r3,128(sp)
 4003364:	dc401f15 	stw	r17,124(sp)
 4003368:	008001c4 	movi	r2,7
 400336c:	14416b16 	blt	r2,r17,400391c <___vfprintf_internal_r+0x15e8>
 4003370:	42000204 	addi	r8,r8,8
 4003374:	d8803717 	ldw	r2,220(sp)
 4003378:	d9003417 	ldw	r4,208(sp)
 400337c:	8c400044 	addi	r17,r17,1
 4003380:	10c7883a 	add	r3,r2,r3
 4003384:	40800115 	stw	r2,4(r8)
 4003388:	41000015 	stw	r4,0(r8)
 400338c:	d8c02015 	stw	r3,128(sp)
 4003390:	dc401f15 	stw	r17,124(sp)
 4003394:	008001c4 	movi	r2,7
 4003398:	14416916 	blt	r2,r17,4003940 <___vfprintf_internal_r+0x160c>
 400339c:	45800204 	addi	r22,r8,8
 40033a0:	d9003617 	ldw	r4,216(sp)
 40033a4:	d9403817 	ldw	r5,224(sp)
 40033a8:	000d883a 	mov	r6,zero
 40033ac:	000f883a 	mov	r7,zero
 40033b0:	d8c03c15 	stw	r3,240(sp)
 40033b4:	400d4600 	call	400d460 <__eqdf2>
 40033b8:	d8c03c17 	ldw	r3,240(sp)
 40033bc:	1000bc26 	beq	r2,zero,40036b0 <___vfprintf_internal_r+0x137c>
 40033c0:	d9403317 	ldw	r5,204(sp)
 40033c4:	84000044 	addi	r16,r16,1
 40033c8:	8c400044 	addi	r17,r17,1
 40033cc:	28bfffc4 	addi	r2,r5,-1
 40033d0:	1887883a 	add	r3,r3,r2
 40033d4:	b0800115 	stw	r2,4(r22)
 40033d8:	b4000015 	stw	r16,0(r22)
 40033dc:	d8c02015 	stw	r3,128(sp)
 40033e0:	dc401f15 	stw	r17,124(sp)
 40033e4:	008001c4 	movi	r2,7
 40033e8:	14414316 	blt	r2,r17,40038f8 <___vfprintf_internal_r+0x15c4>
 40033ec:	b5800204 	addi	r22,r22,8
 40033f0:	d9003a17 	ldw	r4,232(sp)
 40033f4:	df0022c4 	addi	fp,sp,139
 40033f8:	8c400044 	addi	r17,r17,1
 40033fc:	20c7883a 	add	r3,r4,r3
 4003400:	b7000015 	stw	fp,0(r22)
 4003404:	b1000115 	stw	r4,4(r22)
 4003408:	d8c02015 	stw	r3,128(sp)
 400340c:	dc401f15 	stw	r17,124(sp)
 4003410:	008001c4 	movi	r2,7
 4003414:	14400e16 	blt	r2,r17,4003450 <___vfprintf_internal_r+0x111c>
 4003418:	b2000204 	addi	r8,r22,8
 400341c:	003e3a06 	br	4002d08 <__reset+0xfa812d08>
 4003420:	01010074 	movhi	r4,1025
 4003424:	21139484 	addi	r4,r4,20050
 4003428:	d9002b15 	stw	r4,172(sp)
 400342c:	d9002b17 	ldw	r4,172(sp)
 4003430:	1c07883a 	add	r3,r3,r16
 4003434:	44000115 	stw	r16,4(r8)
 4003438:	41000015 	stw	r4,0(r8)
 400343c:	10800044 	addi	r2,r2,1
 4003440:	d8c02015 	stw	r3,128(sp)
 4003444:	d8801f15 	stw	r2,124(sp)
 4003448:	010001c4 	movi	r4,7
 400344c:	20be2d0e 	bge	r4,r2,4002d04 <__reset+0xfa812d04>
 4003450:	d9002c17 	ldw	r4,176(sp)
 4003454:	d9801e04 	addi	r6,sp,120
 4003458:	b80b883a 	mov	r5,r23
 400345c:	40097e80 	call	40097e8 <__sprint_r>
 4003460:	103cb61e 	bne	r2,zero,400273c <__reset+0xfa81273c>
 4003464:	d8c02017 	ldw	r3,128(sp)
 4003468:	da000404 	addi	r8,sp,16
 400346c:	003e2606 	br	4002d08 <__reset+0xfa812d08>
 4003470:	d9002c17 	ldw	r4,176(sp)
 4003474:	d9801e04 	addi	r6,sp,120
 4003478:	b80b883a 	mov	r5,r23
 400347c:	40097e80 	call	40097e8 <__sprint_r>
 4003480:	103e5d26 	beq	r2,zero,4002df8 <__reset+0xfa812df8>
 4003484:	003cad06 	br	400273c <__reset+0xfa81273c>
 4003488:	d9002c17 	ldw	r4,176(sp)
 400348c:	d9801e04 	addi	r6,sp,120
 4003490:	b80b883a 	mov	r5,r23
 4003494:	40097e80 	call	40097e8 <__sprint_r>
 4003498:	103ca81e 	bne	r2,zero,400273c <__reset+0xfa81273c>
 400349c:	d8c02017 	ldw	r3,128(sp)
 40034a0:	da000404 	addi	r8,sp,16
 40034a4:	003e0b06 	br	4002cd4 <__reset+0xfa812cd4>
 40034a8:	d9002c17 	ldw	r4,176(sp)
 40034ac:	d9801e04 	addi	r6,sp,120
 40034b0:	b80b883a 	mov	r5,r23
 40034b4:	40097e80 	call	40097e8 <__sprint_r>
 40034b8:	103ca01e 	bne	r2,zero,400273c <__reset+0xfa81273c>
 40034bc:	d8c02017 	ldw	r3,128(sp)
 40034c0:	da000404 	addi	r8,sp,16
 40034c4:	003dbd06 	br	4002bbc <__reset+0xfa812bbc>
 40034c8:	d9002c17 	ldw	r4,176(sp)
 40034cc:	d9801e04 	addi	r6,sp,120
 40034d0:	b80b883a 	mov	r5,r23
 40034d4:	40097e80 	call	40097e8 <__sprint_r>
 40034d8:	103c981e 	bne	r2,zero,400273c <__reset+0xfa81273c>
 40034dc:	d8c02017 	ldw	r3,128(sp)
 40034e0:	da000404 	addi	r8,sp,16
 40034e4:	003dc306 	br	4002bf4 <__reset+0xfa812bf4>
 40034e8:	d8802917 	ldw	r2,164(sp)
 40034ec:	d8002785 	stb	zero,158(sp)
 40034f0:	103f0616 	blt	r2,zero,400310c <__reset+0xfa81310c>
 40034f4:	00ffdfc4 	movi	r3,-129
 40034f8:	9d84b03a 	or	r2,r19,r22
 40034fc:	90e4703a 	and	r18,r18,r3
 4003500:	103c6b26 	beq	r2,zero,40026b0 <__reset+0xfa8126b0>
 4003504:	0039883a 	mov	fp,zero
 4003508:	003e7406 	br	4002edc <__reset+0xfa812edc>
 400350c:	9080040c 	andi	r2,r18,16
 4003510:	1001b326 	beq	r2,zero,4003be0 <___vfprintf_internal_r+0x18ac>
 4003514:	d9002d17 	ldw	r4,180(sp)
 4003518:	d9402917 	ldw	r5,164(sp)
 400351c:	d8002785 	stb	zero,158(sp)
 4003520:	20800104 	addi	r2,r4,4
 4003524:	24c00017 	ldw	r19,0(r4)
 4003528:	002d883a 	mov	r22,zero
 400352c:	2801b516 	blt	r5,zero,4003c04 <___vfprintf_internal_r+0x18d0>
 4003530:	00ffdfc4 	movi	r3,-129
 4003534:	d8802d15 	stw	r2,180(sp)
 4003538:	90e4703a 	and	r18,r18,r3
 400353c:	983d2726 	beq	r19,zero,40029dc <__reset+0xfa8129dc>
 4003540:	0039883a 	mov	fp,zero
 4003544:	003d2a06 	br	40029f0 <__reset+0xfa8129f0>
 4003548:	dc402617 	ldw	r17,152(sp)
 400354c:	0441d30e 	bge	zero,r17,4003c9c <___vfprintf_internal_r+0x1968>
 4003550:	dc403217 	ldw	r17,200(sp)
 4003554:	d8803317 	ldw	r2,204(sp)
 4003558:	1440010e 	bge	r2,r17,4003560 <___vfprintf_internal_r+0x122c>
 400355c:	1023883a 	mov	r17,r2
 4003560:	04400a0e 	bge	zero,r17,400358c <___vfprintf_internal_r+0x1258>
 4003564:	d8801f17 	ldw	r2,124(sp)
 4003568:	1c47883a 	add	r3,r3,r17
 400356c:	44000015 	stw	r16,0(r8)
 4003570:	10800044 	addi	r2,r2,1
 4003574:	44400115 	stw	r17,4(r8)
 4003578:	d8c02015 	stw	r3,128(sp)
 400357c:	d8801f15 	stw	r2,124(sp)
 4003580:	010001c4 	movi	r4,7
 4003584:	20826516 	blt	r4,r2,4003f1c <___vfprintf_internal_r+0x1be8>
 4003588:	42000204 	addi	r8,r8,8
 400358c:	88026116 	blt	r17,zero,4003f14 <___vfprintf_internal_r+0x1be0>
 4003590:	d9003217 	ldw	r4,200(sp)
 4003594:	2463c83a 	sub	r17,r4,r17
 4003598:	04407b0e 	bge	zero,r17,4003788 <___vfprintf_internal_r+0x1454>
 400359c:	05800404 	movi	r22,16
 40035a0:	d8801f17 	ldw	r2,124(sp)
 40035a4:	b4419d0e 	bge	r22,r17,4003c1c <___vfprintf_internal_r+0x18e8>
 40035a8:	01010074 	movhi	r4,1025
 40035ac:	21139484 	addi	r4,r4,20050
 40035b0:	d9002b15 	stw	r4,172(sp)
 40035b4:	070001c4 	movi	fp,7
 40035b8:	dcc02c17 	ldw	r19,176(sp)
 40035bc:	00000306 	br	40035cc <___vfprintf_internal_r+0x1298>
 40035c0:	42000204 	addi	r8,r8,8
 40035c4:	8c7ffc04 	addi	r17,r17,-16
 40035c8:	b441970e 	bge	r22,r17,4003c28 <___vfprintf_internal_r+0x18f4>
 40035cc:	18c00404 	addi	r3,r3,16
 40035d0:	10800044 	addi	r2,r2,1
 40035d4:	45000015 	stw	r20,0(r8)
 40035d8:	45800115 	stw	r22,4(r8)
 40035dc:	d8c02015 	stw	r3,128(sp)
 40035e0:	d8801f15 	stw	r2,124(sp)
 40035e4:	e0bff60e 	bge	fp,r2,40035c0 <__reset+0xfa8135c0>
 40035e8:	d9801e04 	addi	r6,sp,120
 40035ec:	b80b883a 	mov	r5,r23
 40035f0:	9809883a 	mov	r4,r19
 40035f4:	40097e80 	call	40097e8 <__sprint_r>
 40035f8:	103c501e 	bne	r2,zero,400273c <__reset+0xfa81273c>
 40035fc:	d8c02017 	ldw	r3,128(sp)
 4003600:	d8801f17 	ldw	r2,124(sp)
 4003604:	da000404 	addi	r8,sp,16
 4003608:	003fee06 	br	40035c4 <__reset+0xfa8135c4>
 400360c:	d9002c17 	ldw	r4,176(sp)
 4003610:	d9801e04 	addi	r6,sp,120
 4003614:	b80b883a 	mov	r5,r23
 4003618:	40097e80 	call	40097e8 <__sprint_r>
 400361c:	103c471e 	bne	r2,zero,400273c <__reset+0xfa81273c>
 4003620:	d8c02017 	ldw	r3,128(sp)
 4003624:	df002787 	ldb	fp,158(sp)
 4003628:	da000404 	addi	r8,sp,16
 400362c:	003d5606 	br	4002b88 <__reset+0xfa812b88>
 4003630:	9080040c 	andi	r2,r18,16
 4003634:	10016126 	beq	r2,zero,4003bbc <___vfprintf_internal_r+0x1888>
 4003638:	d8802d17 	ldw	r2,180(sp)
 400363c:	14c00017 	ldw	r19,0(r2)
 4003640:	10800104 	addi	r2,r2,4
 4003644:	d8802d15 	stw	r2,180(sp)
 4003648:	982dd7fa 	srai	r22,r19,31
 400364c:	b005883a 	mov	r2,r22
 4003650:	003c8206 	br	400285c <__reset+0xfa81285c>
 4003654:	9080040c 	andi	r2,r18,16
 4003658:	10003526 	beq	r2,zero,4003730 <___vfprintf_internal_r+0x13fc>
 400365c:	d9402d17 	ldw	r5,180(sp)
 4003660:	d8c02917 	ldw	r3,164(sp)
 4003664:	d8002785 	stb	zero,158(sp)
 4003668:	28800104 	addi	r2,r5,4
 400366c:	2cc00017 	ldw	r19,0(r5)
 4003670:	002d883a 	mov	r22,zero
 4003674:	18003716 	blt	r3,zero,4003754 <___vfprintf_internal_r+0x1420>
 4003678:	00ffdfc4 	movi	r3,-129
 400367c:	d8802d15 	stw	r2,180(sp)
 4003680:	90e4703a 	and	r18,r18,r3
 4003684:	0039883a 	mov	fp,zero
 4003688:	983df326 	beq	r19,zero,4002e58 <__reset+0xfa812e58>
 400368c:	00800244 	movi	r2,9
 4003690:	14fc7b36 	bltu	r2,r19,4002880 <__reset+0xfa812880>
 4003694:	d8c02817 	ldw	r3,160(sp)
 4003698:	dc001dc4 	addi	r16,sp,119
 400369c:	9cc00c04 	addi	r19,r19,48
 40036a0:	1c07c83a 	sub	r3,r3,r16
 40036a4:	dcc01dc5 	stb	r19,119(sp)
 40036a8:	d8c02e15 	stw	r3,184(sp)
 40036ac:	003ce806 	br	4002a50 <__reset+0xfa812a50>
 40036b0:	d8803317 	ldw	r2,204(sp)
 40036b4:	143fffc4 	addi	r16,r2,-1
 40036b8:	043f4d0e 	bge	zero,r16,40033f0 <__reset+0xfa8133f0>
 40036bc:	07000404 	movi	fp,16
 40036c0:	e400810e 	bge	fp,r16,40038c8 <___vfprintf_internal_r+0x1594>
 40036c4:	01410074 	movhi	r5,1025
 40036c8:	29539484 	addi	r5,r5,20050
 40036cc:	d9402b15 	stw	r5,172(sp)
 40036d0:	01c001c4 	movi	r7,7
 40036d4:	dcc02c17 	ldw	r19,176(sp)
 40036d8:	00000306 	br	40036e8 <___vfprintf_internal_r+0x13b4>
 40036dc:	b5800204 	addi	r22,r22,8
 40036e0:	843ffc04 	addi	r16,r16,-16
 40036e4:	e4007b0e 	bge	fp,r16,40038d4 <___vfprintf_internal_r+0x15a0>
 40036e8:	18c00404 	addi	r3,r3,16
 40036ec:	8c400044 	addi	r17,r17,1
 40036f0:	b5000015 	stw	r20,0(r22)
 40036f4:	b7000115 	stw	fp,4(r22)
 40036f8:	d8c02015 	stw	r3,128(sp)
 40036fc:	dc401f15 	stw	r17,124(sp)
 4003700:	3c7ff60e 	bge	r7,r17,40036dc <__reset+0xfa8136dc>
 4003704:	d9801e04 	addi	r6,sp,120
 4003708:	b80b883a 	mov	r5,r23
 400370c:	9809883a 	mov	r4,r19
 4003710:	d9c03c15 	stw	r7,240(sp)
 4003714:	40097e80 	call	40097e8 <__sprint_r>
 4003718:	d9c03c17 	ldw	r7,240(sp)
 400371c:	103c071e 	bne	r2,zero,400273c <__reset+0xfa81273c>
 4003720:	d8c02017 	ldw	r3,128(sp)
 4003724:	dc401f17 	ldw	r17,124(sp)
 4003728:	dd800404 	addi	r22,sp,16
 400372c:	003fec06 	br	40036e0 <__reset+0xfa8136e0>
 4003730:	9080100c 	andi	r2,r18,64
 4003734:	d8002785 	stb	zero,158(sp)
 4003738:	10010e26 	beq	r2,zero,4003b74 <___vfprintf_internal_r+0x1840>
 400373c:	d9002d17 	ldw	r4,180(sp)
 4003740:	d9402917 	ldw	r5,164(sp)
 4003744:	002d883a 	mov	r22,zero
 4003748:	20800104 	addi	r2,r4,4
 400374c:	24c0000b 	ldhu	r19,0(r4)
 4003750:	283fc90e 	bge	r5,zero,4003678 <__reset+0xfa813678>
 4003754:	d8802d15 	stw	r2,180(sp)
 4003758:	0039883a 	mov	fp,zero
 400375c:	9d84b03a 	or	r2,r19,r22
 4003760:	103c461e 	bne	r2,zero,400287c <__reset+0xfa81287c>
 4003764:	00800044 	movi	r2,1
 4003768:	003e6c06 	br	400311c <__reset+0xfa81311c>
 400376c:	d9002c17 	ldw	r4,176(sp)
 4003770:	d9801e04 	addi	r6,sp,120
 4003774:	b80b883a 	mov	r5,r23
 4003778:	40097e80 	call	40097e8 <__sprint_r>
 400377c:	103bef1e 	bne	r2,zero,400273c <__reset+0xfa81273c>
 4003780:	d8c02017 	ldw	r3,128(sp)
 4003784:	da000404 	addi	r8,sp,16
 4003788:	d9003217 	ldw	r4,200(sp)
 400378c:	d8802617 	ldw	r2,152(sp)
 4003790:	d9403317 	ldw	r5,204(sp)
 4003794:	8123883a 	add	r17,r16,r4
 4003798:	11400216 	blt	r2,r5,40037a4 <___vfprintf_internal_r+0x1470>
 400379c:	9100004c 	andi	r4,r18,1
 40037a0:	20000d26 	beq	r4,zero,40037d8 <___vfprintf_internal_r+0x14a4>
 40037a4:	d9003717 	ldw	r4,220(sp)
 40037a8:	d9403417 	ldw	r5,208(sp)
 40037ac:	1907883a 	add	r3,r3,r4
 40037b0:	d9001f17 	ldw	r4,124(sp)
 40037b4:	41400015 	stw	r5,0(r8)
 40037b8:	d9403717 	ldw	r5,220(sp)
 40037bc:	21000044 	addi	r4,r4,1
 40037c0:	d8c02015 	stw	r3,128(sp)
 40037c4:	41400115 	stw	r5,4(r8)
 40037c8:	d9001f15 	stw	r4,124(sp)
 40037cc:	014001c4 	movi	r5,7
 40037d0:	2901e816 	blt	r5,r4,4003f74 <___vfprintf_internal_r+0x1c40>
 40037d4:	42000204 	addi	r8,r8,8
 40037d8:	d9003317 	ldw	r4,204(sp)
 40037dc:	8121883a 	add	r16,r16,r4
 40037e0:	2085c83a 	sub	r2,r4,r2
 40037e4:	8461c83a 	sub	r16,r16,r17
 40037e8:	1400010e 	bge	r2,r16,40037f0 <___vfprintf_internal_r+0x14bc>
 40037ec:	1021883a 	mov	r16,r2
 40037f0:	04000a0e 	bge	zero,r16,400381c <___vfprintf_internal_r+0x14e8>
 40037f4:	d9001f17 	ldw	r4,124(sp)
 40037f8:	1c07883a 	add	r3,r3,r16
 40037fc:	44400015 	stw	r17,0(r8)
 4003800:	21000044 	addi	r4,r4,1
 4003804:	44000115 	stw	r16,4(r8)
 4003808:	d8c02015 	stw	r3,128(sp)
 400380c:	d9001f15 	stw	r4,124(sp)
 4003810:	014001c4 	movi	r5,7
 4003814:	2901fb16 	blt	r5,r4,4004004 <___vfprintf_internal_r+0x1cd0>
 4003818:	42000204 	addi	r8,r8,8
 400381c:	8001f716 	blt	r16,zero,4003ffc <___vfprintf_internal_r+0x1cc8>
 4003820:	1421c83a 	sub	r16,r2,r16
 4003824:	043d380e 	bge	zero,r16,4002d08 <__reset+0xfa812d08>
 4003828:	04400404 	movi	r17,16
 400382c:	d8801f17 	ldw	r2,124(sp)
 4003830:	8c3efb0e 	bge	r17,r16,4003420 <__reset+0xfa813420>
 4003834:	01410074 	movhi	r5,1025
 4003838:	29539484 	addi	r5,r5,20050
 400383c:	d9402b15 	stw	r5,172(sp)
 4003840:	058001c4 	movi	r22,7
 4003844:	dcc02c17 	ldw	r19,176(sp)
 4003848:	00000306 	br	4003858 <___vfprintf_internal_r+0x1524>
 400384c:	42000204 	addi	r8,r8,8
 4003850:	843ffc04 	addi	r16,r16,-16
 4003854:	8c3ef50e 	bge	r17,r16,400342c <__reset+0xfa81342c>
 4003858:	18c00404 	addi	r3,r3,16
 400385c:	10800044 	addi	r2,r2,1
 4003860:	45000015 	stw	r20,0(r8)
 4003864:	44400115 	stw	r17,4(r8)
 4003868:	d8c02015 	stw	r3,128(sp)
 400386c:	d8801f15 	stw	r2,124(sp)
 4003870:	b0bff60e 	bge	r22,r2,400384c <__reset+0xfa81384c>
 4003874:	d9801e04 	addi	r6,sp,120
 4003878:	b80b883a 	mov	r5,r23
 400387c:	9809883a 	mov	r4,r19
 4003880:	40097e80 	call	40097e8 <__sprint_r>
 4003884:	103bad1e 	bne	r2,zero,400273c <__reset+0xfa81273c>
 4003888:	d8c02017 	ldw	r3,128(sp)
 400388c:	d8801f17 	ldw	r2,124(sp)
 4003890:	da000404 	addi	r8,sp,16
 4003894:	003fee06 	br	4003850 <__reset+0xfa813850>
 4003898:	9088703a 	and	r4,r18,r2
 400389c:	203eab1e 	bne	r4,zero,400334c <__reset+0xfa81334c>
 40038a0:	dc401f17 	ldw	r17,124(sp)
 40038a4:	40800115 	stw	r2,4(r8)
 40038a8:	44000015 	stw	r16,0(r8)
 40038ac:	8c400044 	addi	r17,r17,1
 40038b0:	d8c02015 	stw	r3,128(sp)
 40038b4:	dc401f15 	stw	r17,124(sp)
 40038b8:	008001c4 	movi	r2,7
 40038bc:	14400e16 	blt	r2,r17,40038f8 <___vfprintf_internal_r+0x15c4>
 40038c0:	45800204 	addi	r22,r8,8
 40038c4:	003eca06 	br	40033f0 <__reset+0xfa8133f0>
 40038c8:	01010074 	movhi	r4,1025
 40038cc:	21139484 	addi	r4,r4,20050
 40038d0:	d9002b15 	stw	r4,172(sp)
 40038d4:	d8802b17 	ldw	r2,172(sp)
 40038d8:	1c07883a 	add	r3,r3,r16
 40038dc:	8c400044 	addi	r17,r17,1
 40038e0:	b0800015 	stw	r2,0(r22)
 40038e4:	b4000115 	stw	r16,4(r22)
 40038e8:	d8c02015 	stw	r3,128(sp)
 40038ec:	dc401f15 	stw	r17,124(sp)
 40038f0:	008001c4 	movi	r2,7
 40038f4:	147ebd0e 	bge	r2,r17,40033ec <__reset+0xfa8133ec>
 40038f8:	d9002c17 	ldw	r4,176(sp)
 40038fc:	d9801e04 	addi	r6,sp,120
 4003900:	b80b883a 	mov	r5,r23
 4003904:	40097e80 	call	40097e8 <__sprint_r>
 4003908:	103b8c1e 	bne	r2,zero,400273c <__reset+0xfa81273c>
 400390c:	d8c02017 	ldw	r3,128(sp)
 4003910:	dc401f17 	ldw	r17,124(sp)
 4003914:	dd800404 	addi	r22,sp,16
 4003918:	003eb506 	br	40033f0 <__reset+0xfa8133f0>
 400391c:	d9002c17 	ldw	r4,176(sp)
 4003920:	d9801e04 	addi	r6,sp,120
 4003924:	b80b883a 	mov	r5,r23
 4003928:	40097e80 	call	40097e8 <__sprint_r>
 400392c:	103b831e 	bne	r2,zero,400273c <__reset+0xfa81273c>
 4003930:	d8c02017 	ldw	r3,128(sp)
 4003934:	dc401f17 	ldw	r17,124(sp)
 4003938:	da000404 	addi	r8,sp,16
 400393c:	003e8d06 	br	4003374 <__reset+0xfa813374>
 4003940:	d9002c17 	ldw	r4,176(sp)
 4003944:	d9801e04 	addi	r6,sp,120
 4003948:	b80b883a 	mov	r5,r23
 400394c:	40097e80 	call	40097e8 <__sprint_r>
 4003950:	103b7a1e 	bne	r2,zero,400273c <__reset+0xfa81273c>
 4003954:	d8c02017 	ldw	r3,128(sp)
 4003958:	dc401f17 	ldw	r17,124(sp)
 400395c:	dd800404 	addi	r22,sp,16
 4003960:	003e8f06 	br	40033a0 <__reset+0xfa8133a0>
 4003964:	0027883a 	mov	r19,zero
 4003968:	003f4a06 	br	4003694 <__reset+0xfa813694>
 400396c:	d9002c17 	ldw	r4,176(sp)
 4003970:	d9801e04 	addi	r6,sp,120
 4003974:	b80b883a 	mov	r5,r23
 4003978:	40097e80 	call	40097e8 <__sprint_r>
 400397c:	103b6f1e 	bne	r2,zero,400273c <__reset+0xfa81273c>
 4003980:	d8c02017 	ldw	r3,128(sp)
 4003984:	da000404 	addi	r8,sp,16
 4003988:	003c9d06 	br	4002c00 <__reset+0xfa812c00>
 400398c:	04e7c83a 	sub	r19,zero,r19
 4003990:	9804c03a 	cmpne	r2,r19,zero
 4003994:	05adc83a 	sub	r22,zero,r22
 4003998:	b0adc83a 	sub	r22,r22,r2
 400399c:	d8802917 	ldw	r2,164(sp)
 40039a0:	07000b44 	movi	fp,45
 40039a4:	df002785 	stb	fp,158(sp)
 40039a8:	10017b16 	blt	r2,zero,4003f98 <___vfprintf_internal_r+0x1c64>
 40039ac:	00bfdfc4 	movi	r2,-129
 40039b0:	90a4703a 	and	r18,r18,r2
 40039b4:	003bb106 	br	400287c <__reset+0xfa81287c>
 40039b8:	d9003617 	ldw	r4,216(sp)
 40039bc:	d9403817 	ldw	r5,224(sp)
 40039c0:	da003d15 	stw	r8,244(sp)
 40039c4:	400940c0 	call	400940c <__fpclassifyd>
 40039c8:	da003d17 	ldw	r8,244(sp)
 40039cc:	1000f026 	beq	r2,zero,4003d90 <___vfprintf_internal_r+0x1a5c>
 40039d0:	d9002917 	ldw	r4,164(sp)
 40039d4:	05bff7c4 	movi	r22,-33
 40039d8:	00bfffc4 	movi	r2,-1
 40039dc:	8dac703a 	and	r22,r17,r22
 40039e0:	20820026 	beq	r4,r2,40041e4 <___vfprintf_internal_r+0x1eb0>
 40039e4:	008011c4 	movi	r2,71
 40039e8:	b081f726 	beq	r22,r2,40041c8 <___vfprintf_internal_r+0x1e94>
 40039ec:	d9003817 	ldw	r4,224(sp)
 40039f0:	90c04014 	ori	r3,r18,256
 40039f4:	d8c02b15 	stw	r3,172(sp)
 40039f8:	20021516 	blt	r4,zero,4004250 <___vfprintf_internal_r+0x1f1c>
 40039fc:	dcc03817 	ldw	r19,224(sp)
 4003a00:	d8002a05 	stb	zero,168(sp)
 4003a04:	00801984 	movi	r2,102
 4003a08:	8881f926 	beq	r17,r2,40041f0 <___vfprintf_internal_r+0x1ebc>
 4003a0c:	00801184 	movi	r2,70
 4003a10:	88821c26 	beq	r17,r2,4004284 <___vfprintf_internal_r+0x1f50>
 4003a14:	00801144 	movi	r2,69
 4003a18:	b081ef26 	beq	r22,r2,40041d8 <___vfprintf_internal_r+0x1ea4>
 4003a1c:	d8c02917 	ldw	r3,164(sp)
 4003a20:	d8802104 	addi	r2,sp,132
 4003a24:	d8800315 	stw	r2,12(sp)
 4003a28:	d9403617 	ldw	r5,216(sp)
 4003a2c:	d8802504 	addi	r2,sp,148
 4003a30:	d9002c17 	ldw	r4,176(sp)
 4003a34:	d8800215 	stw	r2,8(sp)
 4003a38:	d8802604 	addi	r2,sp,152
 4003a3c:	d8c00015 	stw	r3,0(sp)
 4003a40:	d8800115 	stw	r2,4(sp)
 4003a44:	01c00084 	movi	r7,2
 4003a48:	980d883a 	mov	r6,r19
 4003a4c:	d8c03c15 	stw	r3,240(sp)
 4003a50:	da003d15 	stw	r8,244(sp)
 4003a54:	40049580 	call	4004958 <_dtoa_r>
 4003a58:	1021883a 	mov	r16,r2
 4003a5c:	008019c4 	movi	r2,103
 4003a60:	d8c03c17 	ldw	r3,240(sp)
 4003a64:	da003d17 	ldw	r8,244(sp)
 4003a68:	88817126 	beq	r17,r2,4004030 <___vfprintf_internal_r+0x1cfc>
 4003a6c:	008011c4 	movi	r2,71
 4003a70:	88829226 	beq	r17,r2,40044bc <___vfprintf_internal_r+0x2188>
 4003a74:	80f9883a 	add	fp,r16,r3
 4003a78:	d9003617 	ldw	r4,216(sp)
 4003a7c:	000d883a 	mov	r6,zero
 4003a80:	000f883a 	mov	r7,zero
 4003a84:	980b883a 	mov	r5,r19
 4003a88:	da003d15 	stw	r8,244(sp)
 4003a8c:	400d4600 	call	400d460 <__eqdf2>
 4003a90:	da003d17 	ldw	r8,244(sp)
 4003a94:	10018d26 	beq	r2,zero,40040cc <___vfprintf_internal_r+0x1d98>
 4003a98:	d8802117 	ldw	r2,132(sp)
 4003a9c:	1700062e 	bgeu	r2,fp,4003ab8 <___vfprintf_internal_r+0x1784>
 4003aa0:	01000c04 	movi	r4,48
 4003aa4:	10c00044 	addi	r3,r2,1
 4003aa8:	d8c02115 	stw	r3,132(sp)
 4003aac:	11000005 	stb	r4,0(r2)
 4003ab0:	d8802117 	ldw	r2,132(sp)
 4003ab4:	173ffb36 	bltu	r2,fp,4003aa4 <__reset+0xfa813aa4>
 4003ab8:	1405c83a 	sub	r2,r2,r16
 4003abc:	d8803315 	stw	r2,204(sp)
 4003ac0:	008011c4 	movi	r2,71
 4003ac4:	b0817626 	beq	r22,r2,40040a0 <___vfprintf_internal_r+0x1d6c>
 4003ac8:	00801944 	movi	r2,101
 4003acc:	1442810e 	bge	r2,r17,40044d4 <___vfprintf_internal_r+0x21a0>
 4003ad0:	d8c02617 	ldw	r3,152(sp)
 4003ad4:	00801984 	movi	r2,102
 4003ad8:	d8c03215 	stw	r3,200(sp)
 4003adc:	8881fe26 	beq	r17,r2,40042d8 <___vfprintf_internal_r+0x1fa4>
 4003ae0:	d8c03217 	ldw	r3,200(sp)
 4003ae4:	d9003317 	ldw	r4,204(sp)
 4003ae8:	1901dd16 	blt	r3,r4,4004260 <___vfprintf_internal_r+0x1f2c>
 4003aec:	9480004c 	andi	r18,r18,1
 4003af0:	90022b1e 	bne	r18,zero,40043a0 <___vfprintf_internal_r+0x206c>
 4003af4:	1805883a 	mov	r2,r3
 4003af8:	18028016 	blt	r3,zero,40044fc <___vfprintf_internal_r+0x21c8>
 4003afc:	d8c03217 	ldw	r3,200(sp)
 4003b00:	044019c4 	movi	r17,103
 4003b04:	d8c02e15 	stw	r3,184(sp)
 4003b08:	df002a07 	ldb	fp,168(sp)
 4003b0c:	e001531e 	bne	fp,zero,400405c <___vfprintf_internal_r+0x1d28>
 4003b10:	df002783 	ldbu	fp,158(sp)
 4003b14:	d8802a15 	stw	r2,168(sp)
 4003b18:	dc802b17 	ldw	r18,172(sp)
 4003b1c:	d8002915 	stw	zero,164(sp)
 4003b20:	003bd106 	br	4002a68 <__reset+0xfa812a68>
 4003b24:	d8802d17 	ldw	r2,180(sp)
 4003b28:	d8c02d17 	ldw	r3,180(sp)
 4003b2c:	d9002d17 	ldw	r4,180(sp)
 4003b30:	10800017 	ldw	r2,0(r2)
 4003b34:	18c00117 	ldw	r3,4(r3)
 4003b38:	21000204 	addi	r4,r4,8
 4003b3c:	d8803615 	stw	r2,216(sp)
 4003b40:	d8c03815 	stw	r3,224(sp)
 4003b44:	d9002d15 	stw	r4,180(sp)
 4003b48:	003b7506 	br	4002920 <__reset+0xfa812920>
 4003b4c:	ac400007 	ldb	r17,0(r21)
 4003b50:	003a5906 	br	40024b8 <__reset+0xfa8124b8>
 4003b54:	9080100c 	andi	r2,r18,64
 4003b58:	1000a826 	beq	r2,zero,4003dfc <___vfprintf_internal_r+0x1ac8>
 4003b5c:	d9002d17 	ldw	r4,180(sp)
 4003b60:	002d883a 	mov	r22,zero
 4003b64:	24c0000b 	ldhu	r19,0(r4)
 4003b68:	21000104 	addi	r4,r4,4
 4003b6c:	d9002d15 	stw	r4,180(sp)
 4003b70:	003ccb06 	br	4002ea0 <__reset+0xfa812ea0>
 4003b74:	d8c02d17 	ldw	r3,180(sp)
 4003b78:	d9002917 	ldw	r4,164(sp)
 4003b7c:	002d883a 	mov	r22,zero
 4003b80:	18800104 	addi	r2,r3,4
 4003b84:	1cc00017 	ldw	r19,0(r3)
 4003b88:	203ebb0e 	bge	r4,zero,4003678 <__reset+0xfa813678>
 4003b8c:	003ef106 	br	4003754 <__reset+0xfa813754>
 4003b90:	9080040c 	andi	r2,r18,16
 4003b94:	1000921e 	bne	r2,zero,4003de0 <___vfprintf_internal_r+0x1aac>
 4003b98:	9480100c 	andi	r18,r18,64
 4003b9c:	90013926 	beq	r18,zero,4004084 <___vfprintf_internal_r+0x1d50>
 4003ba0:	d9002d17 	ldw	r4,180(sp)
 4003ba4:	d9402f17 	ldw	r5,188(sp)
 4003ba8:	20800017 	ldw	r2,0(r4)
 4003bac:	21000104 	addi	r4,r4,4
 4003bb0:	d9002d15 	stw	r4,180(sp)
 4003bb4:	1140000d 	sth	r5,0(r2)
 4003bb8:	003a1606 	br	4002414 <__reset+0xfa812414>
 4003bbc:	9080100c 	andi	r2,r18,64
 4003bc0:	10008026 	beq	r2,zero,4003dc4 <___vfprintf_internal_r+0x1a90>
 4003bc4:	d8c02d17 	ldw	r3,180(sp)
 4003bc8:	1cc0000f 	ldh	r19,0(r3)
 4003bcc:	18c00104 	addi	r3,r3,4
 4003bd0:	d8c02d15 	stw	r3,180(sp)
 4003bd4:	982dd7fa 	srai	r22,r19,31
 4003bd8:	b005883a 	mov	r2,r22
 4003bdc:	003b1f06 	br	400285c <__reset+0xfa81285c>
 4003be0:	9080100c 	andi	r2,r18,64
 4003be4:	d8002785 	stb	zero,158(sp)
 4003be8:	10008a1e 	bne	r2,zero,4003e14 <___vfprintf_internal_r+0x1ae0>
 4003bec:	d9402d17 	ldw	r5,180(sp)
 4003bf0:	d8c02917 	ldw	r3,164(sp)
 4003bf4:	002d883a 	mov	r22,zero
 4003bf8:	28800104 	addi	r2,r5,4
 4003bfc:	2cc00017 	ldw	r19,0(r5)
 4003c00:	183e4b0e 	bge	r3,zero,4003530 <__reset+0xfa813530>
 4003c04:	9d86b03a 	or	r3,r19,r22
 4003c08:	d8802d15 	stw	r2,180(sp)
 4003c0c:	183e4c1e 	bne	r3,zero,4003540 <__reset+0xfa813540>
 4003c10:	0039883a 	mov	fp,zero
 4003c14:	0005883a 	mov	r2,zero
 4003c18:	003d4006 	br	400311c <__reset+0xfa81311c>
 4003c1c:	01410074 	movhi	r5,1025
 4003c20:	29539484 	addi	r5,r5,20050
 4003c24:	d9402b15 	stw	r5,172(sp)
 4003c28:	d9402b17 	ldw	r5,172(sp)
 4003c2c:	1c47883a 	add	r3,r3,r17
 4003c30:	10800044 	addi	r2,r2,1
 4003c34:	41400015 	stw	r5,0(r8)
 4003c38:	44400115 	stw	r17,4(r8)
 4003c3c:	d8c02015 	stw	r3,128(sp)
 4003c40:	d8801f15 	stw	r2,124(sp)
 4003c44:	010001c4 	movi	r4,7
 4003c48:	20bec816 	blt	r4,r2,400376c <__reset+0xfa81376c>
 4003c4c:	42000204 	addi	r8,r8,8
 4003c50:	003ecd06 	br	4003788 <__reset+0xfa813788>
 4003c54:	d9002917 	ldw	r4,164(sp)
 4003c58:	d8002785 	stb	zero,158(sp)
 4003c5c:	203d2d16 	blt	r4,zero,4003114 <__reset+0xfa813114>
 4003c60:	00bfdfc4 	movi	r2,-129
 4003c64:	90a4703a 	and	r18,r18,r2
 4003c68:	003a9106 	br	40026b0 <__reset+0xfa8126b0>
 4003c6c:	01010074 	movhi	r4,1025
 4003c70:	21139484 	addi	r4,r4,20050
 4003c74:	d9002b15 	stw	r4,172(sp)
 4003c78:	003c0c06 	br	4002cac <__reset+0xfa812cac>
 4003c7c:	d9002c17 	ldw	r4,176(sp)
 4003c80:	d9801e04 	addi	r6,sp,120
 4003c84:	b80b883a 	mov	r5,r23
 4003c88:	40097e80 	call	40097e8 <__sprint_r>
 4003c8c:	103aab1e 	bne	r2,zero,400273c <__reset+0xfa81273c>
 4003c90:	d8c02017 	ldw	r3,128(sp)
 4003c94:	da000404 	addi	r8,sp,16
 4003c98:	003d4106 	br	40031a0 <__reset+0xfa8131a0>
 4003c9c:	d8801f17 	ldw	r2,124(sp)
 4003ca0:	01410074 	movhi	r5,1025
 4003ca4:	01000044 	movi	r4,1
 4003ca8:	18c00044 	addi	r3,r3,1
 4003cac:	10800044 	addi	r2,r2,1
 4003cb0:	29539404 	addi	r5,r5,20048
 4003cb4:	41000115 	stw	r4,4(r8)
 4003cb8:	41400015 	stw	r5,0(r8)
 4003cbc:	d8c02015 	stw	r3,128(sp)
 4003cc0:	d8801f15 	stw	r2,124(sp)
 4003cc4:	010001c4 	movi	r4,7
 4003cc8:	20805c16 	blt	r4,r2,4003e3c <___vfprintf_internal_r+0x1b08>
 4003ccc:	42000204 	addi	r8,r8,8
 4003cd0:	8800041e 	bne	r17,zero,4003ce4 <___vfprintf_internal_r+0x19b0>
 4003cd4:	d8803317 	ldw	r2,204(sp)
 4003cd8:	1000021e 	bne	r2,zero,4003ce4 <___vfprintf_internal_r+0x19b0>
 4003cdc:	9080004c 	andi	r2,r18,1
 4003ce0:	103c0926 	beq	r2,zero,4002d08 <__reset+0xfa812d08>
 4003ce4:	d9003717 	ldw	r4,220(sp)
 4003ce8:	d8801f17 	ldw	r2,124(sp)
 4003cec:	d9403417 	ldw	r5,208(sp)
 4003cf0:	20c7883a 	add	r3,r4,r3
 4003cf4:	10800044 	addi	r2,r2,1
 4003cf8:	41000115 	stw	r4,4(r8)
 4003cfc:	41400015 	stw	r5,0(r8)
 4003d00:	d8c02015 	stw	r3,128(sp)
 4003d04:	d8801f15 	stw	r2,124(sp)
 4003d08:	010001c4 	movi	r4,7
 4003d0c:	20812116 	blt	r4,r2,4004194 <___vfprintf_internal_r+0x1e60>
 4003d10:	42000204 	addi	r8,r8,8
 4003d14:	0463c83a 	sub	r17,zero,r17
 4003d18:	0440730e 	bge	zero,r17,4003ee8 <___vfprintf_internal_r+0x1bb4>
 4003d1c:	05800404 	movi	r22,16
 4003d20:	b440860e 	bge	r22,r17,4003f3c <___vfprintf_internal_r+0x1c08>
 4003d24:	01410074 	movhi	r5,1025
 4003d28:	29539484 	addi	r5,r5,20050
 4003d2c:	d9402b15 	stw	r5,172(sp)
 4003d30:	070001c4 	movi	fp,7
 4003d34:	dcc02c17 	ldw	r19,176(sp)
 4003d38:	00000306 	br	4003d48 <___vfprintf_internal_r+0x1a14>
 4003d3c:	42000204 	addi	r8,r8,8
 4003d40:	8c7ffc04 	addi	r17,r17,-16
 4003d44:	b440800e 	bge	r22,r17,4003f48 <___vfprintf_internal_r+0x1c14>
 4003d48:	18c00404 	addi	r3,r3,16
 4003d4c:	10800044 	addi	r2,r2,1
 4003d50:	45000015 	stw	r20,0(r8)
 4003d54:	45800115 	stw	r22,4(r8)
 4003d58:	d8c02015 	stw	r3,128(sp)
 4003d5c:	d8801f15 	stw	r2,124(sp)
 4003d60:	e0bff60e 	bge	fp,r2,4003d3c <__reset+0xfa813d3c>
 4003d64:	d9801e04 	addi	r6,sp,120
 4003d68:	b80b883a 	mov	r5,r23
 4003d6c:	9809883a 	mov	r4,r19
 4003d70:	40097e80 	call	40097e8 <__sprint_r>
 4003d74:	103a711e 	bne	r2,zero,400273c <__reset+0xfa81273c>
 4003d78:	d8c02017 	ldw	r3,128(sp)
 4003d7c:	d8801f17 	ldw	r2,124(sp)
 4003d80:	da000404 	addi	r8,sp,16
 4003d84:	003fee06 	br	4003d40 <__reset+0xfa813d40>
 4003d88:	00bfffc4 	movi	r2,-1
 4003d8c:	003a6f06 	br	400274c <__reset+0xfa81274c>
 4003d90:	008011c4 	movi	r2,71
 4003d94:	1440b816 	blt	r2,r17,4004078 <___vfprintf_internal_r+0x1d44>
 4003d98:	04010074 	movhi	r16,1025
 4003d9c:	84138604 	addi	r16,r16,19992
 4003da0:	00c000c4 	movi	r3,3
 4003da4:	00bfdfc4 	movi	r2,-129
 4003da8:	d8c02a15 	stw	r3,168(sp)
 4003dac:	90a4703a 	and	r18,r18,r2
 4003db0:	df002783 	ldbu	fp,158(sp)
 4003db4:	d8c02e15 	stw	r3,184(sp)
 4003db8:	d8002915 	stw	zero,164(sp)
 4003dbc:	d8003215 	stw	zero,200(sp)
 4003dc0:	003b2906 	br	4002a68 <__reset+0xfa812a68>
 4003dc4:	d9002d17 	ldw	r4,180(sp)
 4003dc8:	24c00017 	ldw	r19,0(r4)
 4003dcc:	21000104 	addi	r4,r4,4
 4003dd0:	d9002d15 	stw	r4,180(sp)
 4003dd4:	982dd7fa 	srai	r22,r19,31
 4003dd8:	b005883a 	mov	r2,r22
 4003ddc:	003a9f06 	br	400285c <__reset+0xfa81285c>
 4003de0:	d9402d17 	ldw	r5,180(sp)
 4003de4:	d8c02f17 	ldw	r3,188(sp)
 4003de8:	28800017 	ldw	r2,0(r5)
 4003dec:	29400104 	addi	r5,r5,4
 4003df0:	d9402d15 	stw	r5,180(sp)
 4003df4:	10c00015 	stw	r3,0(r2)
 4003df8:	00398606 	br	4002414 <__reset+0xfa812414>
 4003dfc:	d9402d17 	ldw	r5,180(sp)
 4003e00:	002d883a 	mov	r22,zero
 4003e04:	2cc00017 	ldw	r19,0(r5)
 4003e08:	29400104 	addi	r5,r5,4
 4003e0c:	d9402d15 	stw	r5,180(sp)
 4003e10:	003c2306 	br	4002ea0 <__reset+0xfa812ea0>
 4003e14:	d8c02d17 	ldw	r3,180(sp)
 4003e18:	d9002917 	ldw	r4,164(sp)
 4003e1c:	002d883a 	mov	r22,zero
 4003e20:	18800104 	addi	r2,r3,4
 4003e24:	1cc0000b 	ldhu	r19,0(r3)
 4003e28:	203dc10e 	bge	r4,zero,4003530 <__reset+0xfa813530>
 4003e2c:	003f7506 	br	4003c04 <__reset+0xfa813c04>
 4003e30:	04010074 	movhi	r16,1025
 4003e34:	84138404 	addi	r16,r16,19984
 4003e38:	003acc06 	br	400296c <__reset+0xfa81296c>
 4003e3c:	d9002c17 	ldw	r4,176(sp)
 4003e40:	d9801e04 	addi	r6,sp,120
 4003e44:	b80b883a 	mov	r5,r23
 4003e48:	40097e80 	call	40097e8 <__sprint_r>
 4003e4c:	103a3b1e 	bne	r2,zero,400273c <__reset+0xfa81273c>
 4003e50:	dc402617 	ldw	r17,152(sp)
 4003e54:	d8c02017 	ldw	r3,128(sp)
 4003e58:	da000404 	addi	r8,sp,16
 4003e5c:	003f9c06 	br	4003cd0 <__reset+0xfa813cd0>
 4003e60:	ac400043 	ldbu	r17,1(r21)
 4003e64:	94800814 	ori	r18,r18,32
 4003e68:	ad400044 	addi	r21,r21,1
 4003e6c:	8c403fcc 	andi	r17,r17,255
 4003e70:	8c40201c 	xori	r17,r17,128
 4003e74:	8c7fe004 	addi	r17,r17,-128
 4003e78:	00398f06 	br	40024b8 <__reset+0xfa8124b8>
 4003e7c:	d8c02d15 	stw	r3,180(sp)
 4003e80:	0039883a 	mov	fp,zero
 4003e84:	003e3506 	br	400375c <__reset+0xfa81375c>
 4003e88:	d9002c17 	ldw	r4,176(sp)
 4003e8c:	d9801e04 	addi	r6,sp,120
 4003e90:	b80b883a 	mov	r5,r23
 4003e94:	40097e80 	call	40097e8 <__sprint_r>
 4003e98:	103a281e 	bne	r2,zero,400273c <__reset+0xfa81273c>
 4003e9c:	d8c02017 	ldw	r3,128(sp)
 4003ea0:	da000404 	addi	r8,sp,16
 4003ea4:	003cd006 	br	40031e8 <__reset+0xfa8131e8>
 4003ea8:	8009883a 	mov	r4,r16
 4003eac:	da003d15 	stw	r8,244(sp)
 4003eb0:	400229c0 	call	400229c <strlen>
 4003eb4:	d8802e15 	stw	r2,184(sp)
 4003eb8:	da003d17 	ldw	r8,244(sp)
 4003ebc:	103c340e 	bge	r2,zero,4002f90 <__reset+0xfa812f90>
 4003ec0:	0005883a 	mov	r2,zero
 4003ec4:	003c3206 	br	4002f90 <__reset+0xfa812f90>
 4003ec8:	d9002c17 	ldw	r4,176(sp)
 4003ecc:	d9801e04 	addi	r6,sp,120
 4003ed0:	b80b883a 	mov	r5,r23
 4003ed4:	40097e80 	call	40097e8 <__sprint_r>
 4003ed8:	103a181e 	bne	r2,zero,400273c <__reset+0xfa81273c>
 4003edc:	d8c02017 	ldw	r3,128(sp)
 4003ee0:	d8801f17 	ldw	r2,124(sp)
 4003ee4:	da000404 	addi	r8,sp,16
 4003ee8:	d9403317 	ldw	r5,204(sp)
 4003eec:	10800044 	addi	r2,r2,1
 4003ef0:	44000015 	stw	r16,0(r8)
 4003ef4:	28c7883a 	add	r3,r5,r3
 4003ef8:	003b7d06 	br	4002cf0 <__reset+0xfa812cf0>
 4003efc:	01010074 	movhi	r4,1025
 4003f00:	21139884 	addi	r4,r4,20066
 4003f04:	d9003515 	stw	r4,212(sp)
 4003f08:	003b1406 	br	4002b5c <__reset+0xfa812b5c>
 4003f0c:	013fffc4 	movi	r4,-1
 4003f10:	003a3506 	br	40027e8 <__reset+0xfa8127e8>
 4003f14:	0023883a 	mov	r17,zero
 4003f18:	003d9d06 	br	4003590 <__reset+0xfa813590>
 4003f1c:	d9002c17 	ldw	r4,176(sp)
 4003f20:	d9801e04 	addi	r6,sp,120
 4003f24:	b80b883a 	mov	r5,r23
 4003f28:	40097e80 	call	40097e8 <__sprint_r>
 4003f2c:	103a031e 	bne	r2,zero,400273c <__reset+0xfa81273c>
 4003f30:	d8c02017 	ldw	r3,128(sp)
 4003f34:	da000404 	addi	r8,sp,16
 4003f38:	003d9406 	br	400358c <__reset+0xfa81358c>
 4003f3c:	01010074 	movhi	r4,1025
 4003f40:	21139484 	addi	r4,r4,20050
 4003f44:	d9002b15 	stw	r4,172(sp)
 4003f48:	d9002b17 	ldw	r4,172(sp)
 4003f4c:	1c47883a 	add	r3,r3,r17
 4003f50:	10800044 	addi	r2,r2,1
 4003f54:	41000015 	stw	r4,0(r8)
 4003f58:	44400115 	stw	r17,4(r8)
 4003f5c:	d8c02015 	stw	r3,128(sp)
 4003f60:	d8801f15 	stw	r2,124(sp)
 4003f64:	010001c4 	movi	r4,7
 4003f68:	20bfd716 	blt	r4,r2,4003ec8 <__reset+0xfa813ec8>
 4003f6c:	42000204 	addi	r8,r8,8
 4003f70:	003fdd06 	br	4003ee8 <__reset+0xfa813ee8>
 4003f74:	d9002c17 	ldw	r4,176(sp)
 4003f78:	d9801e04 	addi	r6,sp,120
 4003f7c:	b80b883a 	mov	r5,r23
 4003f80:	40097e80 	call	40097e8 <__sprint_r>
 4003f84:	1039ed1e 	bne	r2,zero,400273c <__reset+0xfa81273c>
 4003f88:	d8802617 	ldw	r2,152(sp)
 4003f8c:	d8c02017 	ldw	r3,128(sp)
 4003f90:	da000404 	addi	r8,sp,16
 4003f94:	003e1006 	br	40037d8 <__reset+0xfa8137d8>
 4003f98:	00800044 	movi	r2,1
 4003f9c:	10803fcc 	andi	r2,r2,255
 4003fa0:	00c00044 	movi	r3,1
 4003fa4:	10fa3526 	beq	r2,r3,400287c <__reset+0xfa81287c>
 4003fa8:	00c00084 	movi	r3,2
 4003fac:	10fbcb26 	beq	r2,r3,4002edc <__reset+0xfa812edc>
 4003fb0:	003a8f06 	br	40029f0 <__reset+0xfa8129f0>
 4003fb4:	01010074 	movhi	r4,1025
 4003fb8:	21139884 	addi	r4,r4,20066
 4003fbc:	d9003515 	stw	r4,212(sp)
 4003fc0:	003b7606 	br	4002d9c <__reset+0xfa812d9c>
 4003fc4:	d8802917 	ldw	r2,164(sp)
 4003fc8:	00c00184 	movi	r3,6
 4003fcc:	1880012e 	bgeu	r3,r2,4003fd4 <___vfprintf_internal_r+0x1ca0>
 4003fd0:	1805883a 	mov	r2,r3
 4003fd4:	d8802e15 	stw	r2,184(sp)
 4003fd8:	1000ef16 	blt	r2,zero,4004398 <___vfprintf_internal_r+0x2064>
 4003fdc:	04010074 	movhi	r16,1025
 4003fe0:	d8802a15 	stw	r2,168(sp)
 4003fe4:	dcc02d15 	stw	r19,180(sp)
 4003fe8:	d8002915 	stw	zero,164(sp)
 4003fec:	d8003215 	stw	zero,200(sp)
 4003ff0:	84139204 	addi	r16,r16,20040
 4003ff4:	0039883a 	mov	fp,zero
 4003ff8:	003aa206 	br	4002a84 <__reset+0xfa812a84>
 4003ffc:	0021883a 	mov	r16,zero
 4004000:	003e0706 	br	4003820 <__reset+0xfa813820>
 4004004:	d9002c17 	ldw	r4,176(sp)
 4004008:	d9801e04 	addi	r6,sp,120
 400400c:	b80b883a 	mov	r5,r23
 4004010:	40097e80 	call	40097e8 <__sprint_r>
 4004014:	1039c91e 	bne	r2,zero,400273c <__reset+0xfa81273c>
 4004018:	d8802617 	ldw	r2,152(sp)
 400401c:	d9403317 	ldw	r5,204(sp)
 4004020:	d8c02017 	ldw	r3,128(sp)
 4004024:	da000404 	addi	r8,sp,16
 4004028:	2885c83a 	sub	r2,r5,r2
 400402c:	003dfb06 	br	400381c <__reset+0xfa81381c>
 4004030:	9080004c 	andi	r2,r18,1
 4004034:	103e8f1e 	bne	r2,zero,4003a74 <__reset+0xfa813a74>
 4004038:	d8802117 	ldw	r2,132(sp)
 400403c:	003e9e06 	br	4003ab8 <__reset+0xfa813ab8>
 4004040:	1025883a 	mov	r18,r2
 4004044:	0039883a 	mov	fp,zero
 4004048:	00800084 	movi	r2,2
 400404c:	003fd306 	br	4003f9c <__reset+0xfa813f9c>
 4004050:	07000b44 	movi	fp,45
 4004054:	df002785 	stb	fp,158(sp)
 4004058:	003a4006 	br	400295c <__reset+0xfa81295c>
 400405c:	00c00b44 	movi	r3,45
 4004060:	d8c02785 	stb	r3,158(sp)
 4004064:	d8802a15 	stw	r2,168(sp)
 4004068:	dc802b17 	ldw	r18,172(sp)
 400406c:	d8002915 	stw	zero,164(sp)
 4004070:	07000b44 	movi	fp,45
 4004074:	003a8006 	br	4002a78 <__reset+0xfa812a78>
 4004078:	04010074 	movhi	r16,1025
 400407c:	84138704 	addi	r16,r16,19996
 4004080:	003f4706 	br	4003da0 <__reset+0xfa813da0>
 4004084:	d8c02d17 	ldw	r3,180(sp)
 4004088:	d9002f17 	ldw	r4,188(sp)
 400408c:	18800017 	ldw	r2,0(r3)
 4004090:	18c00104 	addi	r3,r3,4
 4004094:	d8c02d15 	stw	r3,180(sp)
 4004098:	11000015 	stw	r4,0(r2)
 400409c:	0038dd06 	br	4002414 <__reset+0xfa812414>
 40040a0:	dd802617 	ldw	r22,152(sp)
 40040a4:	00bfff44 	movi	r2,-3
 40040a8:	b0801c16 	blt	r22,r2,400411c <___vfprintf_internal_r+0x1de8>
 40040ac:	d9402917 	ldw	r5,164(sp)
 40040b0:	2d801a16 	blt	r5,r22,400411c <___vfprintf_internal_r+0x1de8>
 40040b4:	dd803215 	stw	r22,200(sp)
 40040b8:	003e8906 	br	4003ae0 <__reset+0xfa813ae0>
 40040bc:	01010074 	movhi	r4,1025
 40040c0:	21139484 	addi	r4,r4,20050
 40040c4:	d9002b15 	stw	r4,172(sp)
 40040c8:	003c9106 	br	4003310 <__reset+0xfa813310>
 40040cc:	e005883a 	mov	r2,fp
 40040d0:	003e7906 	br	4003ab8 <__reset+0xfa813ab8>
 40040d4:	d9402917 	ldw	r5,164(sp)
 40040d8:	df002783 	ldbu	fp,158(sp)
 40040dc:	dcc02d15 	stw	r19,180(sp)
 40040e0:	d9402a15 	stw	r5,168(sp)
 40040e4:	d9402e15 	stw	r5,184(sp)
 40040e8:	d8002915 	stw	zero,164(sp)
 40040ec:	d8003215 	stw	zero,200(sp)
 40040f0:	003a5d06 	br	4002a68 <__reset+0xfa812a68>
 40040f4:	9080004c 	andi	r2,r18,1
 40040f8:	0039883a 	mov	fp,zero
 40040fc:	10000426 	beq	r2,zero,4004110 <___vfprintf_internal_r+0x1ddc>
 4004100:	00800c04 	movi	r2,48
 4004104:	dc001dc4 	addi	r16,sp,119
 4004108:	d8801dc5 	stb	r2,119(sp)
 400410c:	003b8006 	br	4002f10 <__reset+0xfa812f10>
 4004110:	d8002e15 	stw	zero,184(sp)
 4004114:	dc001e04 	addi	r16,sp,120
 4004118:	003a4d06 	br	4002a50 <__reset+0xfa812a50>
 400411c:	8c7fff84 	addi	r17,r17,-2
 4004120:	b5bfffc4 	addi	r22,r22,-1
 4004124:	dd802615 	stw	r22,152(sp)
 4004128:	dc4022c5 	stb	r17,139(sp)
 400412c:	b000bf16 	blt	r22,zero,400442c <___vfprintf_internal_r+0x20f8>
 4004130:	00800ac4 	movi	r2,43
 4004134:	d8802305 	stb	r2,140(sp)
 4004138:	00800244 	movi	r2,9
 400413c:	15807016 	blt	r2,r22,4004300 <___vfprintf_internal_r+0x1fcc>
 4004140:	00800c04 	movi	r2,48
 4004144:	b5800c04 	addi	r22,r22,48
 4004148:	d8802345 	stb	r2,141(sp)
 400414c:	dd802385 	stb	r22,142(sp)
 4004150:	d88023c4 	addi	r2,sp,143
 4004154:	df0022c4 	addi	fp,sp,139
 4004158:	d8c03317 	ldw	r3,204(sp)
 400415c:	1739c83a 	sub	fp,r2,fp
 4004160:	d9003317 	ldw	r4,204(sp)
 4004164:	e0c7883a 	add	r3,fp,r3
 4004168:	df003a15 	stw	fp,232(sp)
 400416c:	d8c02e15 	stw	r3,184(sp)
 4004170:	00800044 	movi	r2,1
 4004174:	1100b30e 	bge	r2,r4,4004444 <___vfprintf_internal_r+0x2110>
 4004178:	d8c02e17 	ldw	r3,184(sp)
 400417c:	18c00044 	addi	r3,r3,1
 4004180:	d8c02e15 	stw	r3,184(sp)
 4004184:	1805883a 	mov	r2,r3
 4004188:	1800ac16 	blt	r3,zero,400443c <___vfprintf_internal_r+0x2108>
 400418c:	d8003215 	stw	zero,200(sp)
 4004190:	003e5d06 	br	4003b08 <__reset+0xfa813b08>
 4004194:	d9002c17 	ldw	r4,176(sp)
 4004198:	d9801e04 	addi	r6,sp,120
 400419c:	b80b883a 	mov	r5,r23
 40041a0:	40097e80 	call	40097e8 <__sprint_r>
 40041a4:	1039651e 	bne	r2,zero,400273c <__reset+0xfa81273c>
 40041a8:	dc402617 	ldw	r17,152(sp)
 40041ac:	d8c02017 	ldw	r3,128(sp)
 40041b0:	d8801f17 	ldw	r2,124(sp)
 40041b4:	da000404 	addi	r8,sp,16
 40041b8:	003ed606 	br	4003d14 <__reset+0xfa813d14>
 40041bc:	582b883a 	mov	r21,r11
 40041c0:	d8002915 	stw	zero,164(sp)
 40041c4:	0038bd06 	br	40024bc <__reset+0xfa8124bc>
 40041c8:	d8802917 	ldw	r2,164(sp)
 40041cc:	103e071e 	bne	r2,zero,40039ec <__reset+0xfa8139ec>
 40041d0:	dc002915 	stw	r16,164(sp)
 40041d4:	003e0506 	br	40039ec <__reset+0xfa8139ec>
 40041d8:	d9002917 	ldw	r4,164(sp)
 40041dc:	20c00044 	addi	r3,r4,1
 40041e0:	003e0f06 	br	4003a20 <__reset+0xfa813a20>
 40041e4:	01400184 	movi	r5,6
 40041e8:	d9402915 	stw	r5,164(sp)
 40041ec:	003dff06 	br	40039ec <__reset+0xfa8139ec>
 40041f0:	d8802104 	addi	r2,sp,132
 40041f4:	d8800315 	stw	r2,12(sp)
 40041f8:	d8802504 	addi	r2,sp,148
 40041fc:	d8800215 	stw	r2,8(sp)
 4004200:	d8802604 	addi	r2,sp,152
 4004204:	d8800115 	stw	r2,4(sp)
 4004208:	d8802917 	ldw	r2,164(sp)
 400420c:	d9403617 	ldw	r5,216(sp)
 4004210:	d9002c17 	ldw	r4,176(sp)
 4004214:	d8800015 	stw	r2,0(sp)
 4004218:	01c000c4 	movi	r7,3
 400421c:	980d883a 	mov	r6,r19
 4004220:	da003d15 	stw	r8,244(sp)
 4004224:	40049580 	call	4004958 <_dtoa_r>
 4004228:	d8c02917 	ldw	r3,164(sp)
 400422c:	da003d17 	ldw	r8,244(sp)
 4004230:	1021883a 	mov	r16,r2
 4004234:	10f9883a 	add	fp,r2,r3
 4004238:	81000007 	ldb	r4,0(r16)
 400423c:	00800c04 	movi	r2,48
 4004240:	20805e26 	beq	r4,r2,40043bc <___vfprintf_internal_r+0x2088>
 4004244:	d8c02617 	ldw	r3,152(sp)
 4004248:	e0f9883a 	add	fp,fp,r3
 400424c:	003e0a06 	br	4003a78 <__reset+0xfa813a78>
 4004250:	00c00b44 	movi	r3,45
 4004254:	24e0003c 	xorhi	r19,r4,32768
 4004258:	d8c02a05 	stb	r3,168(sp)
 400425c:	003de906 	br	4003a04 <__reset+0xfa813a04>
 4004260:	d8c03217 	ldw	r3,200(sp)
 4004264:	00c07a0e 	bge	zero,r3,4004450 <___vfprintf_internal_r+0x211c>
 4004268:	00800044 	movi	r2,1
 400426c:	d9003317 	ldw	r4,204(sp)
 4004270:	1105883a 	add	r2,r2,r4
 4004274:	d8802e15 	stw	r2,184(sp)
 4004278:	10004e16 	blt	r2,zero,40043b4 <___vfprintf_internal_r+0x2080>
 400427c:	044019c4 	movi	r17,103
 4004280:	003e2106 	br	4003b08 <__reset+0xfa813b08>
 4004284:	d9002917 	ldw	r4,164(sp)
 4004288:	d8802104 	addi	r2,sp,132
 400428c:	d8800315 	stw	r2,12(sp)
 4004290:	d9000015 	stw	r4,0(sp)
 4004294:	d8802504 	addi	r2,sp,148
 4004298:	d9403617 	ldw	r5,216(sp)
 400429c:	d9002c17 	ldw	r4,176(sp)
 40042a0:	d8800215 	stw	r2,8(sp)
 40042a4:	d8802604 	addi	r2,sp,152
 40042a8:	d8800115 	stw	r2,4(sp)
 40042ac:	01c000c4 	movi	r7,3
 40042b0:	980d883a 	mov	r6,r19
 40042b4:	da003d15 	stw	r8,244(sp)
 40042b8:	40049580 	call	4004958 <_dtoa_r>
 40042bc:	d8c02917 	ldw	r3,164(sp)
 40042c0:	da003d17 	ldw	r8,244(sp)
 40042c4:	1021883a 	mov	r16,r2
 40042c8:	00801184 	movi	r2,70
 40042cc:	80f9883a 	add	fp,r16,r3
 40042d0:	88bfd926 	beq	r17,r2,4004238 <__reset+0xfa814238>
 40042d4:	003de806 	br	4003a78 <__reset+0xfa813a78>
 40042d8:	d9002917 	ldw	r4,164(sp)
 40042dc:	00c04d0e 	bge	zero,r3,4004414 <___vfprintf_internal_r+0x20e0>
 40042e0:	2000441e 	bne	r4,zero,40043f4 <___vfprintf_internal_r+0x20c0>
 40042e4:	9480004c 	andi	r18,r18,1
 40042e8:	9000421e 	bne	r18,zero,40043f4 <___vfprintf_internal_r+0x20c0>
 40042ec:	1805883a 	mov	r2,r3
 40042f0:	18007016 	blt	r3,zero,40044b4 <___vfprintf_internal_r+0x2180>
 40042f4:	d8c03217 	ldw	r3,200(sp)
 40042f8:	d8c02e15 	stw	r3,184(sp)
 40042fc:	003e0206 	br	4003b08 <__reset+0xfa813b08>
 4004300:	df0022c4 	addi	fp,sp,139
 4004304:	dc002915 	stw	r16,164(sp)
 4004308:	4027883a 	mov	r19,r8
 400430c:	e021883a 	mov	r16,fp
 4004310:	b009883a 	mov	r4,r22
 4004314:	01400284 	movi	r5,10
 4004318:	400c19c0 	call	400c19c <__modsi3>
 400431c:	10800c04 	addi	r2,r2,48
 4004320:	843fffc4 	addi	r16,r16,-1
 4004324:	b009883a 	mov	r4,r22
 4004328:	01400284 	movi	r5,10
 400432c:	80800005 	stb	r2,0(r16)
 4004330:	400c1180 	call	400c118 <__divsi3>
 4004334:	102d883a 	mov	r22,r2
 4004338:	00800244 	movi	r2,9
 400433c:	15bff416 	blt	r2,r22,4004310 <__reset+0xfa814310>
 4004340:	9811883a 	mov	r8,r19
 4004344:	b0800c04 	addi	r2,r22,48
 4004348:	8027883a 	mov	r19,r16
 400434c:	997fffc4 	addi	r5,r19,-1
 4004350:	98bfffc5 	stb	r2,-1(r19)
 4004354:	dc002917 	ldw	r16,164(sp)
 4004358:	2f006a2e 	bgeu	r5,fp,4004504 <___vfprintf_internal_r+0x21d0>
 400435c:	d9c02384 	addi	r7,sp,142
 4004360:	3ccfc83a 	sub	r7,r7,r19
 4004364:	d9002344 	addi	r4,sp,141
 4004368:	e1cf883a 	add	r7,fp,r7
 400436c:	00000106 	br	4004374 <___vfprintf_internal_r+0x2040>
 4004370:	28800003 	ldbu	r2,0(r5)
 4004374:	20800005 	stb	r2,0(r4)
 4004378:	21000044 	addi	r4,r4,1
 400437c:	29400044 	addi	r5,r5,1
 4004380:	393ffb1e 	bne	r7,r4,4004370 <__reset+0xfa814370>
 4004384:	d8802304 	addi	r2,sp,140
 4004388:	14c5c83a 	sub	r2,r2,r19
 400438c:	d8c02344 	addi	r3,sp,141
 4004390:	1885883a 	add	r2,r3,r2
 4004394:	003f7006 	br	4004158 <__reset+0xfa814158>
 4004398:	0005883a 	mov	r2,zero
 400439c:	003f0f06 	br	4003fdc <__reset+0xfa813fdc>
 40043a0:	d8c03217 	ldw	r3,200(sp)
 40043a4:	18c00044 	addi	r3,r3,1
 40043a8:	d8c02e15 	stw	r3,184(sp)
 40043ac:	1805883a 	mov	r2,r3
 40043b0:	183fb20e 	bge	r3,zero,400427c <__reset+0xfa81427c>
 40043b4:	0005883a 	mov	r2,zero
 40043b8:	003fb006 	br	400427c <__reset+0xfa81427c>
 40043bc:	d9003617 	ldw	r4,216(sp)
 40043c0:	000d883a 	mov	r6,zero
 40043c4:	000f883a 	mov	r7,zero
 40043c8:	980b883a 	mov	r5,r19
 40043cc:	d8c03c15 	stw	r3,240(sp)
 40043d0:	da003d15 	stw	r8,244(sp)
 40043d4:	400d4600 	call	400d460 <__eqdf2>
 40043d8:	d8c03c17 	ldw	r3,240(sp)
 40043dc:	da003d17 	ldw	r8,244(sp)
 40043e0:	103f9826 	beq	r2,zero,4004244 <__reset+0xfa814244>
 40043e4:	00800044 	movi	r2,1
 40043e8:	10c7c83a 	sub	r3,r2,r3
 40043ec:	d8c02615 	stw	r3,152(sp)
 40043f0:	003f9506 	br	4004248 <__reset+0xfa814248>
 40043f4:	d9002917 	ldw	r4,164(sp)
 40043f8:	d8c03217 	ldw	r3,200(sp)
 40043fc:	20800044 	addi	r2,r4,1
 4004400:	1885883a 	add	r2,r3,r2
 4004404:	d8802e15 	stw	r2,184(sp)
 4004408:	103dbf0e 	bge	r2,zero,4003b08 <__reset+0xfa813b08>
 400440c:	0005883a 	mov	r2,zero
 4004410:	003dbd06 	br	4003b08 <__reset+0xfa813b08>
 4004414:	2000211e 	bne	r4,zero,400449c <___vfprintf_internal_r+0x2168>
 4004418:	9480004c 	andi	r18,r18,1
 400441c:	90001f1e 	bne	r18,zero,400449c <___vfprintf_internal_r+0x2168>
 4004420:	00800044 	movi	r2,1
 4004424:	d8802e15 	stw	r2,184(sp)
 4004428:	003db706 	br	4003b08 <__reset+0xfa813b08>
 400442c:	00800b44 	movi	r2,45
 4004430:	05adc83a 	sub	r22,zero,r22
 4004434:	d8802305 	stb	r2,140(sp)
 4004438:	003f3f06 	br	4004138 <__reset+0xfa814138>
 400443c:	0005883a 	mov	r2,zero
 4004440:	003f5206 	br	400418c <__reset+0xfa81418c>
 4004444:	90a4703a 	and	r18,r18,r2
 4004448:	903f4e26 	beq	r18,zero,4004184 <__reset+0xfa814184>
 400444c:	003f4a06 	br	4004178 <__reset+0xfa814178>
 4004450:	00800084 	movi	r2,2
 4004454:	10c5c83a 	sub	r2,r2,r3
 4004458:	003f8406 	br	400426c <__reset+0xfa81426c>
 400445c:	d8802d17 	ldw	r2,180(sp)
 4004460:	d9002d17 	ldw	r4,180(sp)
 4004464:	ac400043 	ldbu	r17,1(r21)
 4004468:	10800017 	ldw	r2,0(r2)
 400446c:	582b883a 	mov	r21,r11
 4004470:	d8802915 	stw	r2,164(sp)
 4004474:	20800104 	addi	r2,r4,4
 4004478:	d9002917 	ldw	r4,164(sp)
 400447c:	d8802d15 	stw	r2,180(sp)
 4004480:	203e7a0e 	bge	r4,zero,4003e6c <__reset+0xfa813e6c>
 4004484:	8c403fcc 	andi	r17,r17,255
 4004488:	00bfffc4 	movi	r2,-1
 400448c:	8c40201c 	xori	r17,r17,128
 4004490:	d8802915 	stw	r2,164(sp)
 4004494:	8c7fe004 	addi	r17,r17,-128
 4004498:	00380706 	br	40024b8 <__reset+0xfa8124b8>
 400449c:	d8c02917 	ldw	r3,164(sp)
 40044a0:	18c00084 	addi	r3,r3,2
 40044a4:	d8c02e15 	stw	r3,184(sp)
 40044a8:	1805883a 	mov	r2,r3
 40044ac:	183d960e 	bge	r3,zero,4003b08 <__reset+0xfa813b08>
 40044b0:	003fd606 	br	400440c <__reset+0xfa81440c>
 40044b4:	0005883a 	mov	r2,zero
 40044b8:	003f8e06 	br	40042f4 <__reset+0xfa8142f4>
 40044bc:	9080004c 	andi	r2,r18,1
 40044c0:	103f811e 	bne	r2,zero,40042c8 <__reset+0xfa8142c8>
 40044c4:	d8802117 	ldw	r2,132(sp)
 40044c8:	1405c83a 	sub	r2,r2,r16
 40044cc:	d8803315 	stw	r2,204(sp)
 40044d0:	b47ef326 	beq	r22,r17,40040a0 <__reset+0xfa8140a0>
 40044d4:	dd802617 	ldw	r22,152(sp)
 40044d8:	003f1106 	br	4004120 <__reset+0xfa814120>
 40044dc:	d9c02785 	stb	r7,158(sp)
 40044e0:	00390406 	br	40028f4 <__reset+0xfa8128f4>
 40044e4:	d9c02785 	stb	r7,158(sp)
 40044e8:	0038d306 	br	4002838 <__reset+0xfa812838>
 40044ec:	d9c02785 	stb	r7,158(sp)
 40044f0:	003a6106 	br	4002e78 <__reset+0xfa812e78>
 40044f4:	d9c02785 	stb	r7,158(sp)
 40044f8:	003af806 	br	40030dc <__reset+0xfa8130dc>
 40044fc:	0005883a 	mov	r2,zero
 4004500:	003d7e06 	br	4003afc <__reset+0xfa813afc>
 4004504:	d8802344 	addi	r2,sp,141
 4004508:	003f1306 	br	4004158 <__reset+0xfa814158>
 400450c:	d9c02785 	stb	r7,158(sp)
 4004510:	00392306 	br	40029a0 <__reset+0xfa8129a0>
 4004514:	d9c02785 	stb	r7,158(sp)
 4004518:	003aa906 	br	4002fc0 <__reset+0xfa812fc0>
 400451c:	d9c02785 	stb	r7,158(sp)
 4004520:	003a3d06 	br	4002e18 <__reset+0xfa812e18>
 4004524:	d9c02785 	stb	r7,158(sp)
 4004528:	003aca06 	br	4003054 <__reset+0xfa813054>

0400452c <__vfprintf_internal>:
 400452c:	00810074 	movhi	r2,1025
 4004530:	109c0f04 	addi	r2,r2,28732
 4004534:	300f883a 	mov	r7,r6
 4004538:	280d883a 	mov	r6,r5
 400453c:	200b883a 	mov	r5,r4
 4004540:	11000017 	ldw	r4,0(r2)
 4004544:	40023341 	jmpi	4002334 <___vfprintf_internal_r>

04004548 <__sbprintf>:
 4004548:	2880030b 	ldhu	r2,12(r5)
 400454c:	2ac01917 	ldw	r11,100(r5)
 4004550:	2a80038b 	ldhu	r10,14(r5)
 4004554:	2a400717 	ldw	r9,28(r5)
 4004558:	2a000917 	ldw	r8,36(r5)
 400455c:	defee204 	addi	sp,sp,-1144
 4004560:	00c10004 	movi	r3,1024
 4004564:	dc011a15 	stw	r16,1128(sp)
 4004568:	10bfff4c 	andi	r2,r2,65533
 400456c:	2821883a 	mov	r16,r5
 4004570:	d8cb883a 	add	r5,sp,r3
 4004574:	dc811c15 	stw	r18,1136(sp)
 4004578:	dc411b15 	stw	r17,1132(sp)
 400457c:	dfc11d15 	stw	ra,1140(sp)
 4004580:	2025883a 	mov	r18,r4
 4004584:	d881030d 	sth	r2,1036(sp)
 4004588:	dac11915 	stw	r11,1124(sp)
 400458c:	da81038d 	sth	r10,1038(sp)
 4004590:	da410715 	stw	r9,1052(sp)
 4004594:	da010915 	stw	r8,1060(sp)
 4004598:	dec10015 	stw	sp,1024(sp)
 400459c:	dec10415 	stw	sp,1040(sp)
 40045a0:	d8c10215 	stw	r3,1032(sp)
 40045a4:	d8c10515 	stw	r3,1044(sp)
 40045a8:	d8010615 	stw	zero,1048(sp)
 40045ac:	40023340 	call	4002334 <___vfprintf_internal_r>
 40045b0:	1023883a 	mov	r17,r2
 40045b4:	10000416 	blt	r2,zero,40045c8 <__sbprintf+0x80>
 40045b8:	d9410004 	addi	r5,sp,1024
 40045bc:	9009883a 	mov	r4,r18
 40045c0:	40061fc0 	call	40061fc <_fflush_r>
 40045c4:	10000d1e 	bne	r2,zero,40045fc <__sbprintf+0xb4>
 40045c8:	d881030b 	ldhu	r2,1036(sp)
 40045cc:	1080100c 	andi	r2,r2,64
 40045d0:	10000326 	beq	r2,zero,40045e0 <__sbprintf+0x98>
 40045d4:	8080030b 	ldhu	r2,12(r16)
 40045d8:	10801014 	ori	r2,r2,64
 40045dc:	8080030d 	sth	r2,12(r16)
 40045e0:	8805883a 	mov	r2,r17
 40045e4:	dfc11d17 	ldw	ra,1140(sp)
 40045e8:	dc811c17 	ldw	r18,1136(sp)
 40045ec:	dc411b17 	ldw	r17,1132(sp)
 40045f0:	dc011a17 	ldw	r16,1128(sp)
 40045f4:	dec11e04 	addi	sp,sp,1144
 40045f8:	f800283a 	ret
 40045fc:	047fffc4 	movi	r17,-1
 4004600:	003ff106 	br	40045c8 <__reset+0xfa8145c8>

04004604 <__swsetup_r>:
 4004604:	00810074 	movhi	r2,1025
 4004608:	defffd04 	addi	sp,sp,-12
 400460c:	109c0f04 	addi	r2,r2,28732
 4004610:	dc400115 	stw	r17,4(sp)
 4004614:	2023883a 	mov	r17,r4
 4004618:	11000017 	ldw	r4,0(r2)
 400461c:	dc000015 	stw	r16,0(sp)
 4004620:	dfc00215 	stw	ra,8(sp)
 4004624:	2821883a 	mov	r16,r5
 4004628:	20000226 	beq	r4,zero,4004634 <__swsetup_r+0x30>
 400462c:	20800e17 	ldw	r2,56(r4)
 4004630:	10003126 	beq	r2,zero,40046f8 <__swsetup_r+0xf4>
 4004634:	8080030b 	ldhu	r2,12(r16)
 4004638:	10c0020c 	andi	r3,r2,8
 400463c:	1009883a 	mov	r4,r2
 4004640:	18000f26 	beq	r3,zero,4004680 <__swsetup_r+0x7c>
 4004644:	80c00417 	ldw	r3,16(r16)
 4004648:	18001526 	beq	r3,zero,40046a0 <__swsetup_r+0x9c>
 400464c:	1100004c 	andi	r4,r2,1
 4004650:	20001c1e 	bne	r4,zero,40046c4 <__swsetup_r+0xc0>
 4004654:	1080008c 	andi	r2,r2,2
 4004658:	1000291e 	bne	r2,zero,4004700 <__swsetup_r+0xfc>
 400465c:	80800517 	ldw	r2,20(r16)
 4004660:	80800215 	stw	r2,8(r16)
 4004664:	18001c26 	beq	r3,zero,40046d8 <__swsetup_r+0xd4>
 4004668:	0005883a 	mov	r2,zero
 400466c:	dfc00217 	ldw	ra,8(sp)
 4004670:	dc400117 	ldw	r17,4(sp)
 4004674:	dc000017 	ldw	r16,0(sp)
 4004678:	dec00304 	addi	sp,sp,12
 400467c:	f800283a 	ret
 4004680:	2080040c 	andi	r2,r4,16
 4004684:	10002e26 	beq	r2,zero,4004740 <__swsetup_r+0x13c>
 4004688:	2080010c 	andi	r2,r4,4
 400468c:	10001e1e 	bne	r2,zero,4004708 <__swsetup_r+0x104>
 4004690:	80c00417 	ldw	r3,16(r16)
 4004694:	20800214 	ori	r2,r4,8
 4004698:	8080030d 	sth	r2,12(r16)
 400469c:	183feb1e 	bne	r3,zero,400464c <__reset+0xfa81464c>
 40046a0:	1100a00c 	andi	r4,r2,640
 40046a4:	01408004 	movi	r5,512
 40046a8:	217fe826 	beq	r4,r5,400464c <__reset+0xfa81464c>
 40046ac:	800b883a 	mov	r5,r16
 40046b0:	8809883a 	mov	r4,r17
 40046b4:	400717c0 	call	400717c <__smakebuf_r>
 40046b8:	8080030b 	ldhu	r2,12(r16)
 40046bc:	80c00417 	ldw	r3,16(r16)
 40046c0:	003fe206 	br	400464c <__reset+0xfa81464c>
 40046c4:	80800517 	ldw	r2,20(r16)
 40046c8:	80000215 	stw	zero,8(r16)
 40046cc:	0085c83a 	sub	r2,zero,r2
 40046d0:	80800615 	stw	r2,24(r16)
 40046d4:	183fe41e 	bne	r3,zero,4004668 <__reset+0xfa814668>
 40046d8:	80c0030b 	ldhu	r3,12(r16)
 40046dc:	0005883a 	mov	r2,zero
 40046e0:	1900200c 	andi	r4,r3,128
 40046e4:	203fe126 	beq	r4,zero,400466c <__reset+0xfa81466c>
 40046e8:	18c01014 	ori	r3,r3,64
 40046ec:	80c0030d 	sth	r3,12(r16)
 40046f0:	00bfffc4 	movi	r2,-1
 40046f4:	003fdd06 	br	400466c <__reset+0xfa81466c>
 40046f8:	40065d80 	call	40065d8 <__sinit>
 40046fc:	003fcd06 	br	4004634 <__reset+0xfa814634>
 4004700:	0005883a 	mov	r2,zero
 4004704:	003fd606 	br	4004660 <__reset+0xfa814660>
 4004708:	81400c17 	ldw	r5,48(r16)
 400470c:	28000626 	beq	r5,zero,4004728 <__swsetup_r+0x124>
 4004710:	80801004 	addi	r2,r16,64
 4004714:	28800326 	beq	r5,r2,4004724 <__swsetup_r+0x120>
 4004718:	8809883a 	mov	r4,r17
 400471c:	400674c0 	call	400674c <_free_r>
 4004720:	8100030b 	ldhu	r4,12(r16)
 4004724:	80000c15 	stw	zero,48(r16)
 4004728:	80c00417 	ldw	r3,16(r16)
 400472c:	00bff6c4 	movi	r2,-37
 4004730:	1108703a 	and	r4,r2,r4
 4004734:	80000115 	stw	zero,4(r16)
 4004738:	80c00015 	stw	r3,0(r16)
 400473c:	003fd506 	br	4004694 <__reset+0xfa814694>
 4004740:	00800244 	movi	r2,9
 4004744:	88800015 	stw	r2,0(r17)
 4004748:	20801014 	ori	r2,r4,64
 400474c:	8080030d 	sth	r2,12(r16)
 4004750:	00bfffc4 	movi	r2,-1
 4004754:	003fc506 	br	400466c <__reset+0xfa81466c>

04004758 <quorem>:
 4004758:	defff704 	addi	sp,sp,-36
 400475c:	dc800215 	stw	r18,8(sp)
 4004760:	20800417 	ldw	r2,16(r4)
 4004764:	2c800417 	ldw	r18,16(r5)
 4004768:	dfc00815 	stw	ra,32(sp)
 400476c:	ddc00715 	stw	r23,28(sp)
 4004770:	dd800615 	stw	r22,24(sp)
 4004774:	dd400515 	stw	r21,20(sp)
 4004778:	dd000415 	stw	r20,16(sp)
 400477c:	dcc00315 	stw	r19,12(sp)
 4004780:	dc400115 	stw	r17,4(sp)
 4004784:	dc000015 	stw	r16,0(sp)
 4004788:	14807116 	blt	r2,r18,4004950 <quorem+0x1f8>
 400478c:	94bfffc4 	addi	r18,r18,-1
 4004790:	94ad883a 	add	r22,r18,r18
 4004794:	b5ad883a 	add	r22,r22,r22
 4004798:	2c400504 	addi	r17,r5,20
 400479c:	8da9883a 	add	r20,r17,r22
 40047a0:	25400504 	addi	r21,r4,20
 40047a4:	282f883a 	mov	r23,r5
 40047a8:	adad883a 	add	r22,r21,r22
 40047ac:	a1400017 	ldw	r5,0(r20)
 40047b0:	2021883a 	mov	r16,r4
 40047b4:	b1000017 	ldw	r4,0(r22)
 40047b8:	29400044 	addi	r5,r5,1
 40047bc:	400c2100 	call	400c210 <__udivsi3>
 40047c0:	1027883a 	mov	r19,r2
 40047c4:	10002c26 	beq	r2,zero,4004878 <quorem+0x120>
 40047c8:	a813883a 	mov	r9,r21
 40047cc:	880b883a 	mov	r5,r17
 40047d0:	0009883a 	mov	r4,zero
 40047d4:	000d883a 	mov	r6,zero
 40047d8:	2a000017 	ldw	r8,0(r5)
 40047dc:	49c00017 	ldw	r7,0(r9)
 40047e0:	29400104 	addi	r5,r5,4
 40047e4:	40bfffcc 	andi	r2,r8,65535
 40047e8:	14c5383a 	mul	r2,r2,r19
 40047ec:	4010d43a 	srli	r8,r8,16
 40047f0:	38ffffcc 	andi	r3,r7,65535
 40047f4:	1105883a 	add	r2,r2,r4
 40047f8:	1008d43a 	srli	r4,r2,16
 40047fc:	44d1383a 	mul	r8,r8,r19
 4004800:	198d883a 	add	r6,r3,r6
 4004804:	10ffffcc 	andi	r3,r2,65535
 4004808:	30c7c83a 	sub	r3,r6,r3
 400480c:	380ed43a 	srli	r7,r7,16
 4004810:	4105883a 	add	r2,r8,r4
 4004814:	180dd43a 	srai	r6,r3,16
 4004818:	113fffcc 	andi	r4,r2,65535
 400481c:	390fc83a 	sub	r7,r7,r4
 4004820:	398d883a 	add	r6,r7,r6
 4004824:	300e943a 	slli	r7,r6,16
 4004828:	18ffffcc 	andi	r3,r3,65535
 400482c:	1008d43a 	srli	r4,r2,16
 4004830:	38ceb03a 	or	r7,r7,r3
 4004834:	49c00015 	stw	r7,0(r9)
 4004838:	300dd43a 	srai	r6,r6,16
 400483c:	4a400104 	addi	r9,r9,4
 4004840:	a17fe52e 	bgeu	r20,r5,40047d8 <__reset+0xfa8147d8>
 4004844:	b0800017 	ldw	r2,0(r22)
 4004848:	10000b1e 	bne	r2,zero,4004878 <quorem+0x120>
 400484c:	b0bfff04 	addi	r2,r22,-4
 4004850:	a880082e 	bgeu	r21,r2,4004874 <quorem+0x11c>
 4004854:	b0ffff17 	ldw	r3,-4(r22)
 4004858:	18000326 	beq	r3,zero,4004868 <quorem+0x110>
 400485c:	00000506 	br	4004874 <quorem+0x11c>
 4004860:	10c00017 	ldw	r3,0(r2)
 4004864:	1800031e 	bne	r3,zero,4004874 <quorem+0x11c>
 4004868:	10bfff04 	addi	r2,r2,-4
 400486c:	94bfffc4 	addi	r18,r18,-1
 4004870:	a8bffb36 	bltu	r21,r2,4004860 <__reset+0xfa814860>
 4004874:	84800415 	stw	r18,16(r16)
 4004878:	b80b883a 	mov	r5,r23
 400487c:	8009883a 	mov	r4,r16
 4004880:	40087740 	call	4008774 <__mcmp>
 4004884:	10002616 	blt	r2,zero,4004920 <quorem+0x1c8>
 4004888:	9cc00044 	addi	r19,r19,1
 400488c:	a805883a 	mov	r2,r21
 4004890:	000b883a 	mov	r5,zero
 4004894:	11000017 	ldw	r4,0(r2)
 4004898:	89800017 	ldw	r6,0(r17)
 400489c:	10800104 	addi	r2,r2,4
 40048a0:	20ffffcc 	andi	r3,r4,65535
 40048a4:	194b883a 	add	r5,r3,r5
 40048a8:	30ffffcc 	andi	r3,r6,65535
 40048ac:	28c7c83a 	sub	r3,r5,r3
 40048b0:	300cd43a 	srli	r6,r6,16
 40048b4:	2008d43a 	srli	r4,r4,16
 40048b8:	180bd43a 	srai	r5,r3,16
 40048bc:	18ffffcc 	andi	r3,r3,65535
 40048c0:	2189c83a 	sub	r4,r4,r6
 40048c4:	2149883a 	add	r4,r4,r5
 40048c8:	200c943a 	slli	r6,r4,16
 40048cc:	8c400104 	addi	r17,r17,4
 40048d0:	200bd43a 	srai	r5,r4,16
 40048d4:	30c6b03a 	or	r3,r6,r3
 40048d8:	10ffff15 	stw	r3,-4(r2)
 40048dc:	a47fed2e 	bgeu	r20,r17,4004894 <__reset+0xfa814894>
 40048e0:	9485883a 	add	r2,r18,r18
 40048e4:	1085883a 	add	r2,r2,r2
 40048e8:	a887883a 	add	r3,r21,r2
 40048ec:	18800017 	ldw	r2,0(r3)
 40048f0:	10000b1e 	bne	r2,zero,4004920 <quorem+0x1c8>
 40048f4:	18bfff04 	addi	r2,r3,-4
 40048f8:	a880082e 	bgeu	r21,r2,400491c <quorem+0x1c4>
 40048fc:	18ffff17 	ldw	r3,-4(r3)
 4004900:	18000326 	beq	r3,zero,4004910 <quorem+0x1b8>
 4004904:	00000506 	br	400491c <quorem+0x1c4>
 4004908:	10c00017 	ldw	r3,0(r2)
 400490c:	1800031e 	bne	r3,zero,400491c <quorem+0x1c4>
 4004910:	10bfff04 	addi	r2,r2,-4
 4004914:	94bfffc4 	addi	r18,r18,-1
 4004918:	a8bffb36 	bltu	r21,r2,4004908 <__reset+0xfa814908>
 400491c:	84800415 	stw	r18,16(r16)
 4004920:	9805883a 	mov	r2,r19
 4004924:	dfc00817 	ldw	ra,32(sp)
 4004928:	ddc00717 	ldw	r23,28(sp)
 400492c:	dd800617 	ldw	r22,24(sp)
 4004930:	dd400517 	ldw	r21,20(sp)
 4004934:	dd000417 	ldw	r20,16(sp)
 4004938:	dcc00317 	ldw	r19,12(sp)
 400493c:	dc800217 	ldw	r18,8(sp)
 4004940:	dc400117 	ldw	r17,4(sp)
 4004944:	dc000017 	ldw	r16,0(sp)
 4004948:	dec00904 	addi	sp,sp,36
 400494c:	f800283a 	ret
 4004950:	0005883a 	mov	r2,zero
 4004954:	003ff306 	br	4004924 <__reset+0xfa814924>

04004958 <_dtoa_r>:
 4004958:	20801017 	ldw	r2,64(r4)
 400495c:	deffde04 	addi	sp,sp,-136
 4004960:	df002015 	stw	fp,128(sp)
 4004964:	dcc01b15 	stw	r19,108(sp)
 4004968:	dc801a15 	stw	r18,104(sp)
 400496c:	dc401915 	stw	r17,100(sp)
 4004970:	dc001815 	stw	r16,96(sp)
 4004974:	dfc02115 	stw	ra,132(sp)
 4004978:	ddc01f15 	stw	r23,124(sp)
 400497c:	dd801e15 	stw	r22,120(sp)
 4004980:	dd401d15 	stw	r21,116(sp)
 4004984:	dd001c15 	stw	r20,112(sp)
 4004988:	d9c00315 	stw	r7,12(sp)
 400498c:	2039883a 	mov	fp,r4
 4004990:	3023883a 	mov	r17,r6
 4004994:	2825883a 	mov	r18,r5
 4004998:	dc002417 	ldw	r16,144(sp)
 400499c:	3027883a 	mov	r19,r6
 40049a0:	10000826 	beq	r2,zero,40049c4 <_dtoa_r+0x6c>
 40049a4:	21801117 	ldw	r6,68(r4)
 40049a8:	00c00044 	movi	r3,1
 40049ac:	100b883a 	mov	r5,r2
 40049b0:	1986983a 	sll	r3,r3,r6
 40049b4:	11800115 	stw	r6,4(r2)
 40049b8:	10c00215 	stw	r3,8(r2)
 40049bc:	4007f540 	call	4007f54 <_Bfree>
 40049c0:	e0001015 	stw	zero,64(fp)
 40049c4:	88002e16 	blt	r17,zero,4004a80 <_dtoa_r+0x128>
 40049c8:	80000015 	stw	zero,0(r16)
 40049cc:	889ffc2c 	andhi	r2,r17,32752
 40049d0:	00dffc34 	movhi	r3,32752
 40049d4:	10c01c26 	beq	r2,r3,4004a48 <_dtoa_r+0xf0>
 40049d8:	000d883a 	mov	r6,zero
 40049dc:	000f883a 	mov	r7,zero
 40049e0:	9009883a 	mov	r4,r18
 40049e4:	980b883a 	mov	r5,r19
 40049e8:	400d4600 	call	400d460 <__eqdf2>
 40049ec:	10002b1e 	bne	r2,zero,4004a9c <_dtoa_r+0x144>
 40049f0:	d9c02317 	ldw	r7,140(sp)
 40049f4:	00800044 	movi	r2,1
 40049f8:	38800015 	stw	r2,0(r7)
 40049fc:	d8802517 	ldw	r2,148(sp)
 4004a00:	10019e26 	beq	r2,zero,400507c <_dtoa_r+0x724>
 4004a04:	d8c02517 	ldw	r3,148(sp)
 4004a08:	00810074 	movhi	r2,1025
 4004a0c:	10939444 	addi	r2,r2,20049
 4004a10:	18800015 	stw	r2,0(r3)
 4004a14:	10bfffc4 	addi	r2,r2,-1
 4004a18:	dfc02117 	ldw	ra,132(sp)
 4004a1c:	df002017 	ldw	fp,128(sp)
 4004a20:	ddc01f17 	ldw	r23,124(sp)
 4004a24:	dd801e17 	ldw	r22,120(sp)
 4004a28:	dd401d17 	ldw	r21,116(sp)
 4004a2c:	dd001c17 	ldw	r20,112(sp)
 4004a30:	dcc01b17 	ldw	r19,108(sp)
 4004a34:	dc801a17 	ldw	r18,104(sp)
 4004a38:	dc401917 	ldw	r17,100(sp)
 4004a3c:	dc001817 	ldw	r16,96(sp)
 4004a40:	dec02204 	addi	sp,sp,136
 4004a44:	f800283a 	ret
 4004a48:	d8c02317 	ldw	r3,140(sp)
 4004a4c:	0089c3c4 	movi	r2,9999
 4004a50:	18800015 	stw	r2,0(r3)
 4004a54:	90017726 	beq	r18,zero,4005034 <_dtoa_r+0x6dc>
 4004a58:	00810074 	movhi	r2,1025
 4004a5c:	1093a004 	addi	r2,r2,20096
 4004a60:	d9002517 	ldw	r4,148(sp)
 4004a64:	203fec26 	beq	r4,zero,4004a18 <__reset+0xfa814a18>
 4004a68:	10c000c7 	ldb	r3,3(r2)
 4004a6c:	1801781e 	bne	r3,zero,4005050 <_dtoa_r+0x6f8>
 4004a70:	10c000c4 	addi	r3,r2,3
 4004a74:	d9802517 	ldw	r6,148(sp)
 4004a78:	30c00015 	stw	r3,0(r6)
 4004a7c:	003fe606 	br	4004a18 <__reset+0xfa814a18>
 4004a80:	04e00034 	movhi	r19,32768
 4004a84:	9cffffc4 	addi	r19,r19,-1
 4004a88:	00800044 	movi	r2,1
 4004a8c:	8ce6703a 	and	r19,r17,r19
 4004a90:	80800015 	stw	r2,0(r16)
 4004a94:	9823883a 	mov	r17,r19
 4004a98:	003fcc06 	br	40049cc <__reset+0xfa8149cc>
 4004a9c:	d8800204 	addi	r2,sp,8
 4004aa0:	d8800015 	stw	r2,0(sp)
 4004aa4:	d9c00104 	addi	r7,sp,4
 4004aa8:	900b883a 	mov	r5,r18
 4004aac:	980d883a 	mov	r6,r19
 4004ab0:	e009883a 	mov	r4,fp
 4004ab4:	8820d53a 	srli	r16,r17,20
 4004ab8:	4008b400 	call	4008b40 <__d2b>
 4004abc:	d8800915 	stw	r2,36(sp)
 4004ac0:	8001651e 	bne	r16,zero,4005058 <_dtoa_r+0x700>
 4004ac4:	dd800217 	ldw	r22,8(sp)
 4004ac8:	dc000117 	ldw	r16,4(sp)
 4004acc:	00800804 	movi	r2,32
 4004ad0:	b421883a 	add	r16,r22,r16
 4004ad4:	80c10c84 	addi	r3,r16,1074
 4004ad8:	10c2d10e 	bge	r2,r3,4005620 <_dtoa_r+0xcc8>
 4004adc:	00801004 	movi	r2,64
 4004ae0:	81010484 	addi	r4,r16,1042
 4004ae4:	10c7c83a 	sub	r3,r2,r3
 4004ae8:	9108d83a 	srl	r4,r18,r4
 4004aec:	88e2983a 	sll	r17,r17,r3
 4004af0:	2448b03a 	or	r4,r4,r17
 4004af4:	400e8280 	call	400e828 <__floatunsidf>
 4004af8:	017f8434 	movhi	r5,65040
 4004afc:	01800044 	movi	r6,1
 4004b00:	1009883a 	mov	r4,r2
 4004b04:	194b883a 	add	r5,r3,r5
 4004b08:	843fffc4 	addi	r16,r16,-1
 4004b0c:	d9801115 	stw	r6,68(sp)
 4004b10:	000d883a 	mov	r6,zero
 4004b14:	01cffe34 	movhi	r7,16376
 4004b18:	400ddd00 	call	400ddd0 <__subdf3>
 4004b1c:	0198dbf4 	movhi	r6,25455
 4004b20:	01cff4f4 	movhi	r7,16339
 4004b24:	3190d844 	addi	r6,r6,17249
 4004b28:	39e1e9c4 	addi	r7,r7,-30809
 4004b2c:	1009883a 	mov	r4,r2
 4004b30:	180b883a 	mov	r5,r3
 4004b34:	400d6b80 	call	400d6b8 <__muldf3>
 4004b38:	01a2d874 	movhi	r6,35681
 4004b3c:	01cff1f4 	movhi	r7,16327
 4004b40:	31b22cc4 	addi	r6,r6,-14157
 4004b44:	39e28a04 	addi	r7,r7,-30168
 4004b48:	180b883a 	mov	r5,r3
 4004b4c:	1009883a 	mov	r4,r2
 4004b50:	400c2cc0 	call	400c2cc <__adddf3>
 4004b54:	8009883a 	mov	r4,r16
 4004b58:	1029883a 	mov	r20,r2
 4004b5c:	1823883a 	mov	r17,r3
 4004b60:	400e74c0 	call	400e74c <__floatsidf>
 4004b64:	019427f4 	movhi	r6,20639
 4004b68:	01cff4f4 	movhi	r7,16339
 4004b6c:	319e7ec4 	addi	r6,r6,31227
 4004b70:	39d104c4 	addi	r7,r7,17427
 4004b74:	1009883a 	mov	r4,r2
 4004b78:	180b883a 	mov	r5,r3
 4004b7c:	400d6b80 	call	400d6b8 <__muldf3>
 4004b80:	100d883a 	mov	r6,r2
 4004b84:	180f883a 	mov	r7,r3
 4004b88:	a009883a 	mov	r4,r20
 4004b8c:	880b883a 	mov	r5,r17
 4004b90:	400c2cc0 	call	400c2cc <__adddf3>
 4004b94:	1009883a 	mov	r4,r2
 4004b98:	180b883a 	mov	r5,r3
 4004b9c:	1029883a 	mov	r20,r2
 4004ba0:	1823883a 	mov	r17,r3
 4004ba4:	400e6cc0 	call	400e6cc <__fixdfsi>
 4004ba8:	000d883a 	mov	r6,zero
 4004bac:	000f883a 	mov	r7,zero
 4004bb0:	a009883a 	mov	r4,r20
 4004bb4:	880b883a 	mov	r5,r17
 4004bb8:	d8800515 	stw	r2,20(sp)
 4004bbc:	400d5c40 	call	400d5c4 <__ledf2>
 4004bc0:	10028716 	blt	r2,zero,40055e0 <_dtoa_r+0xc88>
 4004bc4:	d8c00517 	ldw	r3,20(sp)
 4004bc8:	00800584 	movi	r2,22
 4004bcc:	10c27536 	bltu	r2,r3,40055a4 <_dtoa_r+0xc4c>
 4004bd0:	180490fa 	slli	r2,r3,3
 4004bd4:	00c10074 	movhi	r3,1025
 4004bd8:	18d3bc04 	addi	r3,r3,20208
 4004bdc:	1885883a 	add	r2,r3,r2
 4004be0:	11000017 	ldw	r4,0(r2)
 4004be4:	11400117 	ldw	r5,4(r2)
 4004be8:	900d883a 	mov	r6,r18
 4004bec:	980f883a 	mov	r7,r19
 4004bf0:	400d4e80 	call	400d4e8 <__gedf2>
 4004bf4:	00828d0e 	bge	zero,r2,400562c <_dtoa_r+0xcd4>
 4004bf8:	d9000517 	ldw	r4,20(sp)
 4004bfc:	d8000e15 	stw	zero,56(sp)
 4004c00:	213fffc4 	addi	r4,r4,-1
 4004c04:	d9000515 	stw	r4,20(sp)
 4004c08:	b42dc83a 	sub	r22,r22,r16
 4004c0c:	b5bfffc4 	addi	r22,r22,-1
 4004c10:	b0026f16 	blt	r22,zero,40055d0 <_dtoa_r+0xc78>
 4004c14:	d8000815 	stw	zero,32(sp)
 4004c18:	d9c00517 	ldw	r7,20(sp)
 4004c1c:	38026416 	blt	r7,zero,40055b0 <_dtoa_r+0xc58>
 4004c20:	b1ed883a 	add	r22,r22,r7
 4004c24:	d9c00d15 	stw	r7,52(sp)
 4004c28:	d8000a15 	stw	zero,40(sp)
 4004c2c:	d9800317 	ldw	r6,12(sp)
 4004c30:	00800244 	movi	r2,9
 4004c34:	11811436 	bltu	r2,r6,4005088 <_dtoa_r+0x730>
 4004c38:	00800144 	movi	r2,5
 4004c3c:	1184e10e 	bge	r2,r6,4005fc4 <_dtoa_r+0x166c>
 4004c40:	31bfff04 	addi	r6,r6,-4
 4004c44:	d9800315 	stw	r6,12(sp)
 4004c48:	0023883a 	mov	r17,zero
 4004c4c:	d9800317 	ldw	r6,12(sp)
 4004c50:	008000c4 	movi	r2,3
 4004c54:	30836726 	beq	r6,r2,40059f4 <_dtoa_r+0x109c>
 4004c58:	1183410e 	bge	r2,r6,4005960 <_dtoa_r+0x1008>
 4004c5c:	d9c00317 	ldw	r7,12(sp)
 4004c60:	00800104 	movi	r2,4
 4004c64:	38827c26 	beq	r7,r2,4005658 <_dtoa_r+0xd00>
 4004c68:	00800144 	movi	r2,5
 4004c6c:	3884c41e 	bne	r7,r2,4005f80 <_dtoa_r+0x1628>
 4004c70:	00800044 	movi	r2,1
 4004c74:	d8800b15 	stw	r2,44(sp)
 4004c78:	d8c00517 	ldw	r3,20(sp)
 4004c7c:	d9002217 	ldw	r4,136(sp)
 4004c80:	1907883a 	add	r3,r3,r4
 4004c84:	19800044 	addi	r6,r3,1
 4004c88:	d8c00c15 	stw	r3,48(sp)
 4004c8c:	d9800615 	stw	r6,24(sp)
 4004c90:	0183a40e 	bge	zero,r6,4005b24 <_dtoa_r+0x11cc>
 4004c94:	d9800617 	ldw	r6,24(sp)
 4004c98:	3021883a 	mov	r16,r6
 4004c9c:	e0001115 	stw	zero,68(fp)
 4004ca0:	008005c4 	movi	r2,23
 4004ca4:	1184c92e 	bgeu	r2,r6,4005fcc <_dtoa_r+0x1674>
 4004ca8:	00c00044 	movi	r3,1
 4004cac:	00800104 	movi	r2,4
 4004cb0:	1085883a 	add	r2,r2,r2
 4004cb4:	11000504 	addi	r4,r2,20
 4004cb8:	180b883a 	mov	r5,r3
 4004cbc:	18c00044 	addi	r3,r3,1
 4004cc0:	313ffb2e 	bgeu	r6,r4,4004cb0 <__reset+0xfa814cb0>
 4004cc4:	e1401115 	stw	r5,68(fp)
 4004cc8:	e009883a 	mov	r4,fp
 4004ccc:	4007eac0 	call	4007eac <_Balloc>
 4004cd0:	d8800715 	stw	r2,28(sp)
 4004cd4:	e0801015 	stw	r2,64(fp)
 4004cd8:	00800384 	movi	r2,14
 4004cdc:	1400f736 	bltu	r2,r16,40050bc <_dtoa_r+0x764>
 4004ce0:	8800f626 	beq	r17,zero,40050bc <_dtoa_r+0x764>
 4004ce4:	d9c00517 	ldw	r7,20(sp)
 4004ce8:	01c39a0e 	bge	zero,r7,4005b54 <_dtoa_r+0x11fc>
 4004cec:	388003cc 	andi	r2,r7,15
 4004cf0:	100490fa 	slli	r2,r2,3
 4004cf4:	382bd13a 	srai	r21,r7,4
 4004cf8:	00c10074 	movhi	r3,1025
 4004cfc:	18d3bc04 	addi	r3,r3,20208
 4004d00:	1885883a 	add	r2,r3,r2
 4004d04:	a8c0040c 	andi	r3,r21,16
 4004d08:	12400017 	ldw	r9,0(r2)
 4004d0c:	12000117 	ldw	r8,4(r2)
 4004d10:	18037926 	beq	r3,zero,4005af8 <_dtoa_r+0x11a0>
 4004d14:	00810074 	movhi	r2,1025
 4004d18:	1093b204 	addi	r2,r2,20168
 4004d1c:	11800817 	ldw	r6,32(r2)
 4004d20:	11c00917 	ldw	r7,36(r2)
 4004d24:	9009883a 	mov	r4,r18
 4004d28:	980b883a 	mov	r5,r19
 4004d2c:	da001715 	stw	r8,92(sp)
 4004d30:	da401615 	stw	r9,88(sp)
 4004d34:	400cb780 	call	400cb78 <__divdf3>
 4004d38:	da001717 	ldw	r8,92(sp)
 4004d3c:	da401617 	ldw	r9,88(sp)
 4004d40:	ad4003cc 	andi	r21,r21,15
 4004d44:	040000c4 	movi	r16,3
 4004d48:	1023883a 	mov	r17,r2
 4004d4c:	1829883a 	mov	r20,r3
 4004d50:	a8001126 	beq	r21,zero,4004d98 <_dtoa_r+0x440>
 4004d54:	05c10074 	movhi	r23,1025
 4004d58:	bdd3b204 	addi	r23,r23,20168
 4004d5c:	4805883a 	mov	r2,r9
 4004d60:	4007883a 	mov	r3,r8
 4004d64:	a980004c 	andi	r6,r21,1
 4004d68:	1009883a 	mov	r4,r2
 4004d6c:	a82bd07a 	srai	r21,r21,1
 4004d70:	180b883a 	mov	r5,r3
 4004d74:	30000426 	beq	r6,zero,4004d88 <_dtoa_r+0x430>
 4004d78:	b9800017 	ldw	r6,0(r23)
